---
triple:          'arm64-apple-darwin'
binary-path:     '/Users/abdullah/Desktop/TUMstudy/algos/advance-algorithms-competitive-programming/ccc/output/ccc2'
relocations:
  - { offset: 0x25873, size: 0x8, addend: 0x0, symName: __ZStL8__ioinit, symObjAddr: 0xDEF60, symBinAddr: 0x10001C000, symSize: 0x0 }
  - { offset: 0x26746, size: 0x8, addend: 0x0, symName: _n, symObjAddr: 0xDEF68, symBinAddr: 0x10001C008, symSize: 0x0 }
  - { offset: 0x2675D, size: 0x8, addend: 0x0, symName: _L, symObjAddr: 0xDEF6C, symBinAddr: 0x10001C00C, symSize: 0x0 }
  - { offset: 0x26877, size: 0x8, addend: 0x0, symName: __Z9schedulesB5cxx11, symObjAddr: 0xDEF70, symBinAddr: 0x10001C010, symSize: 0x0 }
  - { offset: 0x26892, size: 0x8, addend: 0x0, symName: __Z15scaled_scheduleB5cxx11, symObjAddr: 0xDEF88, symBinAddr: 0x10001C028, symSize: 0x0 }
  - { offset: 0x268A9, size: 0x8, addend: 0x0, symName: _scaled_L, symObjAddr: 0xDEFA0, symBinAddr: 0x10001C040, symSize: 0x0 }
  - { offset: 0x268C0, size: 0x8, addend: 0x0, symName: _scaled_T, symObjAddr: 0xDEFA4, symBinAddr: 0x10001C044, symSize: 0x0 }
  - { offset: 0x269F3, size: 0x8, addend: 0x0, symName: _valid_intervals, symObjAddr: 0xDEFA8, symBinAddr: 0x10001C048, symSize: 0x0 }
  - { offset: 0x26B09, size: 0x8, addend: 0x0, symName: _sleep_assignment, symObjAddr: 0xDEFC0, symBinAddr: 0x10001C060, symSize: 0x0 }
  - { offset: 0x2723F, size: 0x8, addend: 0x0, symName: __GLOBAL__sub_I_ccc2.cpp, symObjAddr: 0xE278, symBinAddr: 0x10000DB84, symSize: 0x14 }
  - { offset: 0x27257, size: 0x8, addend: 0x0, symName: __Z41__static_initialization_and_destruction_0v, symObjAddr: 0xE19C, symBinAddr: 0x10000DAA8, symSize: 0xDC }
  - { offset: 0x27381, size: 0x8, addend: 0x0, symName: __ZSt10_ConstructISt4pairIiiEJRS1_EEvPT_DpOT0_, symObjAddr: 0xD308, symBinAddr: 0x10000DA48, symSize: 0x60 }
  - { offset: 0x273F4, size: 0x8, addend: 0x0, symName: __ZSt14__copy_move_a2ILb0EPSt4pairIiiES2_S2_ET2_T0_T1_S3_, symObjAddr: 0xD2AC, symBinAddr: 0x10000D9EC, symSize: 0x5C }
  - { offset: 0x274B0, size: 0x8, addend: 0x0, symName: __ZSt14__copy_move_a2ILb0EPKSt4pairIiiES3_PS1_ET2_T0_T1_S5_, symObjAddr: 0xD250, symBinAddr: 0x10000D990, symSize: 0x5C }
  - { offset: 0x2754C, size: 0x8, addend: 0x0, symName: __ZNKSt16reverse_iteratorIP8FractionEdeEv, symObjAddr: 0xD224, symBinAddr: 0x10000D964, symSize: 0x2C }
  - { offset: 0x27583, size: 0x8, addend: 0x0, symName: __ZSteqIP8FractionEbRKSt16reverse_iteratorIT_ES6_, symObjAddr: 0xD1E4, symBinAddr: 0x10000D924, symSize: 0x40 }
  - { offset: 0x275C7, size: 0x8, addend: 0x0, symName: __ZSt16__do_uninit_copyIN9__gnu_cxx17__normal_iteratorIPKSt4pairIiiESt6vectorIS3_SaIS3_EEEES9_PS3_ET1_T_T0_SB_, symObjAddr: 0xD130, symBinAddr: 0x10000D870, symSize: 0xB4 }
  - { offset: 0x2770D, size: 0x8, addend: 0x0, symName: __ZSt16__do_uninit_copyIPSt4pairIiiES2_S2_ET1_T_T0_S3_, symObjAddr: 0xD0A8, symBinAddr: 0x10000D7E8, symSize: 0x88 }
  - { offset: 0x27816, size: 0x8, addend: 0x0, symName: __ZSt12__niter_wrapIN9__gnu_cxx17__normal_iteratorIPSt4pairIiiESt6vectorIS3_SaIS3_EEEES4_ET_S9_T0_, symObjAddr: 0xD048, symBinAddr: 0x10000D788, symSize: 0x60 }
  - { offset: 0x279DE, size: 0x8, addend: 0x0, symName: __ZNKSt16reverse_iteratorIP8FractionE4baseEv, symObjAddr: 0xD030, symBinAddr: 0x10000D770, symSize: 0x18 }
  - { offset: 0x27A48, size: 0x8, addend: 0x0, symName: __ZNSt16reverse_iteratorIP8FractionEmmEv, symObjAddr: 0xD008, symBinAddr: 0x10000D748, symSize: 0x28 }
  - { offset: 0x27A6E, size: 0x8, addend: 0x0, symName: __ZStneIP8FractionEbRKSt16reverse_iteratorIT_ES6_, symObjAddr: 0xCFDC, symBinAddr: 0x10000D71C, symSize: 0x2C }
  - { offset: 0x27ADD, size: 0x8, addend: 0x0, symName: __ZNSt16reverse_iteratorIP8FractionEC1ES1_, symObjAddr: 0xCFB8, symBinAddr: 0x10000D6F8, symSize: 0x24 }
  - { offset: 0x27B17, size: 0x8, addend: 0x0, symName: __ZNK9__gnu_cxx5__ops14_Iter_less_valclISt16reverse_iteratorINS_17__normal_iteratorIP8FractionSt6vectorIS5_SaIS5_EEEEES5_EEbT_RT0_, symObjAddr: 0xCF8C, symBinAddr: 0x10000D6CC, symSize: 0x2C }
  - { offset: 0x27B70, size: 0x8, addend: 0x0, symName: __ZSt18uninitialized_copyIN9__gnu_cxx17__normal_iteratorIPKSt4pairIiiESt6vectorIS3_SaIS3_EEEEPS3_ET0_T_SC_SB_, symObjAddr: 0xCF60, symBinAddr: 0x10000D6A0, symSize: 0x2C }
  - { offset: 0x27BE1, size: 0x8, addend: 0x0, symName: __ZSt18uninitialized_copyIPSt4pairIiiES2_ET0_T_S4_S3_, symObjAddr: 0xCF34, symBinAddr: 0x10000D674, symSize: 0x2C }
  - { offset: 0x27C8A, size: 0x8, addend: 0x0, symName: __ZSt12__miter_baseIPSt4pairIiiEET_S3_, symObjAddr: 0xCF20, symBinAddr: 0x10000D660, symSize: 0x14 }
  - { offset: 0x27CBD, size: 0x8, addend: 0x0, symName: __ZSt8_DestroyIN9__gnu_cxx17__normal_iteratorIPSt4pairIiiESt6vectorIS3_SaIS3_EEEEEvT_S9_, symObjAddr: 0xCF08, symBinAddr: 0x10000D648, symSize: 0x18 }
  - { offset: 0x27D4D, size: 0x8, addend: 0x0, symName: __ZSt12__miter_baseIN9__gnu_cxx17__normal_iteratorIPKSt4pairIiiESt6vectorIS3_SaIS3_EEEEET_SA_, symObjAddr: 0xCEF4, symBinAddr: 0x10000D634, symSize: 0x14 }
  - { offset: 0x27D84, size: 0x8, addend: 0x0, symName: __ZNSt6vectorISt4pairIiiESaIS1_EE12_Guard_alloc10_M_releaseEv, symObjAddr: 0xCECC, symBinAddr: 0x10000D60C, symSize: 0x28 }
  - { offset: 0x27E40, size: 0x8, addend: 0x0, symName: __ZNKSt13move_iteratorIPiE4baseEv, symObjAddr: 0xCEB4, symBinAddr: 0x10000D5F4, symSize: 0x18 }
  - { offset: 0x27EFC, size: 0x8, addend: 0x0, symName: __ZStmiIP8FractionS1_EDTmicldtfp0_4baseEcldtfp_4baseEERKSt16reverse_iteratorIT_ERKS3_IT0_E, symObjAddr: 0xCE78, symBinAddr: 0x10000D5B8, symSize: 0x3C }
  - { offset: 0x27F49, size: 0x8, addend: 0x0, symName: __ZSt12__niter_baseIP8FractionEDTcl23__make_reverse_iteratorcl12__niter_basecldtfp_4baseEEEESt16reverse_iteratorIT_E, symObjAddr: 0xCE3C, symBinAddr: 0x10000D57C, symSize: 0x3C }
  - { offset: 0x27FA1, size: 0x8, addend: 0x0, symName: __ZSt23__copy_move_backward_a2ILb1ESt16reverse_iteratorIP8FractionES3_ET1_T0_S5_S4_, symObjAddr: 0xCDA4, symBinAddr: 0x10000D4E4, symSize: 0x98 }
  - { offset: 0x28088, size: 0x8, addend: 0x0, symName: __ZNSt16reverse_iteratorIP8FractionEC1ERKS2_, symObjAddr: 0xCD7C, symBinAddr: 0x10000D4BC, symSize: 0x28 }
  - { offset: 0x280B3, size: 0x8, addend: 0x0, symName: __ZSt23__make_reverse_iteratorIP8FractionESt16reverse_iteratorIT_ES3_, symObjAddr: 0xCD4C, symBinAddr: 0x10000D48C, symSize: 0x30 }
  - { offset: 0x28114, size: 0x8, addend: 0x0, symName: __ZSt11__push_heapISt16reverse_iteratorIN9__gnu_cxx17__normal_iteratorIP8FractionSt6vectorIS3_SaIS3_EEEEElS3_NS1_5__ops14_Iter_less_valEEvT_T0_SD_T1_RT2_, symObjAddr: 0xCC10, symBinAddr: 0x10000D350, symSize: 0x13C }
  - { offset: 0x281FE, size: 0x8, addend: 0x0, symName: __ZSt22__uninitialized_copy_aIN9__gnu_cxx17__normal_iteratorIPKSt4pairIiiESt6vectorIS3_SaIS3_EEEES9_PS3_S3_ET1_T_T0_SB_RSaIT2_E, symObjAddr: 0xCBE0, symBinAddr: 0x10000D320, symSize: 0x30 }
  - { offset: 0x2828C, size: 0x8, addend: 0x0, symName: __ZSt22__uninitialized_copy_aIPSt4pairIiiES2_S2_S1_ET1_T_T0_S3_RSaIT2_E, symObjAddr: 0xCBB0, symBinAddr: 0x10000D2F0, symSize: 0x30 }
  - { offset: 0x28305, size: 0x8, addend: 0x0, symName: __ZSt4copyIPSt4pairIiiES2_ET0_T_S4_S3_, symObjAddr: 0xCB18, symBinAddr: 0x10000D258, symSize: 0x98 }
  - { offset: 0x284A5, size: 0x8, addend: 0x0, symName: __ZSt4copyIN9__gnu_cxx17__normal_iteratorIPKSt4pairIiiESt6vectorIS3_SaIS3_EEEENS1_IPS3_S8_EEET0_T_SD_SC_, symObjAddr: 0xCA70, symBinAddr: 0x10000D1B0, symSize: 0xA8 }
  - { offset: 0x28646, size: 0x8, addend: 0x0, symName: __ZNSt6vectorISt4pairIiiESaIS1_EE20_M_allocate_and_copyIN9__gnu_cxx17__normal_iteratorIPKS1_S3_EEEEPS1_mT_SB_, symObjAddr: 0xC9CC, symBinAddr: 0x10000D10C, symSize: 0xA4 }
  - { offset: 0x286EA, size: 0x8, addend: 0x0, symName: __ZNSt6vectorISt4pairIiiESaIS1_EE5clearEv, symObjAddr: 0xC9A0, symBinAddr: 0x10000D0E0, symSize: 0x2C }
  - { offset: 0x28744, size: 0x8, addend: 0x0, symName: __ZNSt15__new_allocatorISt6vectorISt4pairIiiESaIS2_EEE8allocateEmPKv, symObjAddr: 0xC910, symBinAddr: 0x10000D050, symSize: 0x90 }
  - { offset: 0x287D0, size: 0x8, addend: 0x0, symName: __ZNSt7__cxx1112basic_stringIcSt11char_traitsIcESaIcEE6assignERKS4_, symObjAddr: 0xC730, symBinAddr: 0x10000CE70, symSize: 0x1E0 }
  - { offset: 0x289FF, size: 0x8, addend: 0x0, symName: __ZNSt15__new_allocatorISt13_Rb_tree_nodeI8FractionEE8allocateEmPKv, symObjAddr: 0xC6A0, symBinAddr: 0x10000CDE0, symSize: 0x90 }
  - { offset: 0x28A79, size: 0x8, addend: 0x0, symName: __ZNK9__gnu_cxx16__aligned_membufI8FractionE7_M_addrEv, symObjAddr: 0xC68C, symBinAddr: 0x10000CDCC, symSize: 0x14 }
  - { offset: 0x28AF0, size: 0x8, addend: 0x0, symName: __ZSt9__advanceIPilEvRT_T0_St26random_access_iterator_tag, symObjAddr: 0xC654, symBinAddr: 0x10000CD94, symSize: 0x38 }
  - { offset: 0x28B7A, size: 0x8, addend: 0x0, symName: __ZSteqIPiEbRKSt13move_iteratorIT_ES5_, symObjAddr: 0xC614, symBinAddr: 0x10000CD54, symSize: 0x40 }
  - { offset: 0x28C33, size: 0x8, addend: 0x0, symName: __ZSt12__niter_wrapISt16reverse_iteratorIN9__gnu_cxx17__normal_iteratorIP8FractionSt6vectorIS3_SaIS3_EEEEES0_IS4_EET_SB_T0_, symObjAddr: 0xC598, symBinAddr: 0x10000CCD8, symSize: 0x7C }
  - { offset: 0x28CD0, size: 0x8, addend: 0x0, symName: __ZSt12__niter_baseIN9__gnu_cxx17__normal_iteratorIP8FractionSt6vectorIS2_SaIS2_EEEEEDTcl23__make_reverse_iteratorcl12__niter_basecldtfp_4baseEEEESt16reverse_iteratorIT_E, symObjAddr: 0xC558, symBinAddr: 0x10000CC98, symSize: 0x40 }
  - { offset: 0x28D49, size: 0x8, addend: 0x0, symName: __ZSt23__make_reverse_iteratorIN9__gnu_cxx17__normal_iteratorIP8FractionSt6vectorIS2_SaIS2_EEEEESt16reverse_iteratorIT_ES9_, symObjAddr: 0xC528, symBinAddr: 0x10000CC68, symSize: 0x30 }
  - { offset: 0x28D7C, size: 0x8, addend: 0x0, symName: __ZSt12__miter_baseIN9__gnu_cxx17__normal_iteratorIP8FractionSt6vectorIS2_SaIS2_EEEEET_S8_, symObjAddr: 0xC514, symBinAddr: 0x10000CC54, symSize: 0x14 }
  - { offset: 0x28DAF, size: 0x8, addend: 0x0, symName: __ZSt4swapI8FractionENSt9enable_ifIXsrSt6__and_IJSt6__not_ISt15__is_tuple_likeIT_EESt21is_move_constructibleIS5_ESt18is_move_assignableIS5_EEE5valueEvE4typeERS5_SF_, symObjAddr: 0xC4C0, symBinAddr: 0x10000CC00, symSize: 0x54 }
  - { offset: 0x28E67, size: 0x8, addend: 0x0, symName: __ZSt13__adjust_heapISt16reverse_iteratorIN9__gnu_cxx17__normal_iteratorIP8FractionSt6vectorIS3_SaIS3_EEEEElS3_NS1_5__ops15_Iter_less_iterEEvT_T0_SD_T1_T2_, symObjAddr: 0xC2C4, symBinAddr: 0x10000CA04, symSize: 0x1FC }
  - { offset: 0x28F95, size: 0x8, addend: 0x0, symName: __ZNSt19_UninitDestroyGuardIP8FractionvE7releaseEv, symObjAddr: 0xC2A8, symBinAddr: 0x10000C9E8, symSize: 0x1C }
  - { offset: 0x28FBB, size: 0x8, addend: 0x0, symName: __ZSt10_ConstructI8FractionJRKS0_EEvPT_DpOT0_, symObjAddr: 0xC248, symBinAddr: 0x10000C988, symSize: 0x60 }
  - { offset: 0x29032, size: 0x8, addend: 0x0, symName: __ZNKSt23_Rb_tree_const_iteratorI8FractionEdeEv, symObjAddr: 0xC228, symBinAddr: 0x10000C968, symSize: 0x20 }
  - { offset: 0x29094, size: 0x8, addend: 0x0, symName: __ZNSt19_UninitDestroyGuardIP8FractionvED1Ev, symObjAddr: 0xC1D0, symBinAddr: 0x10000C910, symSize: 0x58 }
  - { offset: 0x290E1, size: 0x8, addend: 0x0, symName: __ZNSt19_UninitDestroyGuardIP8FractionvEC1ERS1_, symObjAddr: 0xC19C, symBinAddr: 0x10000C8DC, symSize: 0x34 }
  - { offset: 0x29160, size: 0x8, addend: 0x0, symName: __ZNSt4pairIiiEaSERKS0_, symObjAddr: 0xC164, symBinAddr: 0x10000C8A4, symSize: 0x38 }
  - { offset: 0x291D9, size: 0x8, addend: 0x0, symName: __ZNSt6vectorISt4pairIiiESaIS1_EEC1ERKS3_, symObjAddr: 0xC050, symBinAddr: 0x10000C790, symSize: 0x114 }
  - { offset: 0x29310, size: 0x8, addend: 0x0, symName: __ZNSt6vectorISt4pairIiiESaIS1_EEaSERKS3_, symObjAddr: 0xBD08, symBinAddr: 0x10000C448, symSize: 0x348 }
  - { offset: 0x29513, size: 0x8, addend: 0x0, symName: __ZNSt7__cxx1112basic_stringIcSt11char_traitsIcESaIcEEaSERKS4_, symObjAddr: 0xBCE4, symBinAddr: 0x10000C424, symSize: 0x24 }
  - { offset: 0x295D8, size: 0x8, addend: 0x0, symName: __ZNK9__gnu_cxx16__aligned_membufI8FractionE6_M_ptrEv, symObjAddr: 0xBCC8, symBinAddr: 0x10000C408, symSize: 0x1C }
  - { offset: 0x29606, size: 0x8, addend: 0x0, symName: __ZN9__gnu_cxx16__aligned_membufI8FractionE7_M_addrEv, symObjAddr: 0xBCB4, symBinAddr: 0x10000C3F4, symSize: 0x14 }
  - { offset: 0x2962C, size: 0x8, addend: 0x0, symName: __ZSt19__relocate_object_aISt4pairIiiES1_SaIS1_EEvPT_PT0_RT1_, symObjAddr: 0xBBD8, symBinAddr: 0x10000C318, symSize: 0xDC }
  - { offset: 0x298B3, size: 0x8, addend: 0x0, symName: __ZSt10_ConstructIiJiEEvPT_DpOT0_, symObjAddr: 0xBB78, symBinAddr: 0x10000C2B8, symSize: 0x60 }
  - { offset: 0x2992A, size: 0x8, addend: 0x0, symName: __ZNKSt13move_iteratorIPiEdeEv, symObjAddr: 0xBB60, symBinAddr: 0x10000C2A0, symSize: 0x18 }
  - { offset: 0x29954, size: 0x8, addend: 0x0, symName: __ZNSt13move_iteratorIPiEppEv, symObjAddr: 0xBB38, symBinAddr: 0x10000C278, symSize: 0x28 }
  - { offset: 0x2997A, size: 0x8, addend: 0x0, symName: __ZStneIPiEbRKSt13move_iteratorIT_ES5_, symObjAddr: 0xBB0C, symBinAddr: 0x10000C24C, symSize: 0x2C }
  - { offset: 0x29A26, size: 0x8, addend: 0x0, symName: __ZSt19__relocate_object_aINSt7__cxx1112basic_stringIcSt11char_traitsIcESaIcEEES5_SaIS5_EEvPT_PT0_RT1_, symObjAddr: 0xBA1C, symBinAddr: 0x10000C15C, symSize: 0xF0 }
  - { offset: 0x29C01, size: 0x8, addend: 0x0, symName: __ZSt10_ConstructINSt7__cxx1112basic_stringIcSt11char_traitsIcESaIcEEEJEEvPT_DpOT0_, symObjAddr: 0xB9C4, symBinAddr: 0x10000C104, symSize: 0x58 }
  - { offset: 0x29C66, size: 0x8, addend: 0x0, symName: __ZNK9__gnu_cxx5__ops14_Val_less_iterclI8FractionSt16reverse_iteratorINS_17__normal_iteratorIPS3_St6vectorIS3_SaIS3_EEEEEEEbRT_T0_, symObjAddr: 0xB994, symBinAddr: 0x10000C0D4, symSize: 0x30 }
  - { offset: 0x29D0D, size: 0x8, addend: 0x0, symName: __ZSt12__miter_baseIN9__gnu_cxx17__normal_iteratorIP8FractionSt6vectorIS2_SaIS2_EEEEEDTcl23__make_reverse_iteratorcl12__miter_basecldtfp_4baseEEEESt16reverse_iteratorIT_E, symObjAddr: 0xB95C, symBinAddr: 0x10000C09C, symSize: 0x38 }
  - { offset: 0x29D7D, size: 0x8, addend: 0x0, symName: __ZSt9iter_swapISt16reverse_iteratorIN9__gnu_cxx17__normal_iteratorIP8FractionSt6vectorIS3_SaIS3_EEEEES9_EvT_T0_, symObjAddr: 0xB918, symBinAddr: 0x10000C058, symSize: 0x44 }
  - { offset: 0x29DF2, size: 0x8, addend: 0x0, symName: __ZNSt16reverse_iteratorIN9__gnu_cxx17__normal_iteratorIP8FractionSt6vectorIS2_SaIS2_EEEEEmmEv, symObjAddr: 0xB8E8, symBinAddr: 0x10000C028, symSize: 0x30 }
  - { offset: 0x29E3C, size: 0x8, addend: 0x0, symName: __ZSt10__pop_heapISt16reverse_iteratorIN9__gnu_cxx17__normal_iteratorIP8FractionSt6vectorIS3_SaIS3_EEEEENS1_5__ops15_Iter_less_iterEEvT_SC_SC_RT0_, symObjAddr: 0xB848, symBinAddr: 0x10000BF88, symSize: 0xA0 }
  - { offset: 0x29F3E, size: 0x8, addend: 0x0, symName: __ZSt11__make_heapISt16reverse_iteratorIN9__gnu_cxx17__normal_iteratorIP8FractionSt6vectorIS3_SaIS3_EEEEENS1_5__ops15_Iter_less_iterEEvT_SC_RT0_, symObjAddr: 0xB758, symBinAddr: 0x10000BE98, symSize: 0xF0 }
  - { offset: 0x2A03D, size: 0x8, addend: 0x0, symName: __ZSt16__do_uninit_copyISt23_Rb_tree_const_iteratorI8FractionES2_PS1_ET1_T_T0_S4_, symObjAddr: 0xB6C0, symBinAddr: 0x10000BE00, symSize: 0x98 }
  - { offset: 0x2A0D8, size: 0x8, addend: 0x0, symName: __ZNSt15__new_allocatorI8FractionE8allocateEmPKv, symObjAddr: 0xB644, symBinAddr: 0x10000BD84, symSize: 0x7C }
  - { offset: 0x2A164, size: 0x8, addend: 0x0, symName: __ZNSt19_UninitDestroyGuardIPSt4pairIiiEvE7releaseEv, symObjAddr: 0xB628, symBinAddr: 0x10000BD68, symSize: 0x1C }
  - { offset: 0x2A18A, size: 0x8, addend: 0x0, symName: __ZSt10_ConstructISt4pairIiiEJRKS1_EEvPT_DpOT0_, symObjAddr: 0xB5C8, symBinAddr: 0x10000BD08, symSize: 0x60 }
  - { offset: 0x2A239, size: 0x8, addend: 0x0, symName: __ZNSt19_UninitDestroyGuardIPSt4pairIiiEvED1Ev, symObjAddr: 0xB570, symBinAddr: 0x10000BCB0, symSize: 0x58 }
  - { offset: 0x2A286, size: 0x8, addend: 0x0, symName: __ZNSt19_UninitDestroyGuardIPSt4pairIiiEvEC1ERS2_, symObjAddr: 0xB53C, symBinAddr: 0x10000BC7C, symSize: 0x34 }
  - { offset: 0x2A2B1, size: 0x8, addend: 0x0, symName: __ZSt9__fill_a1IPSt4pairIiiES1_EvT_S3_RKT0_, symObjAddr: 0xB4E0, symBinAddr: 0x10000BC20, symSize: 0x5C }
  - { offset: 0x2A358, size: 0x8, addend: 0x0, symName: __ZNSt19_UninitDestroyGuardIPSt6vectorISt4pairIiiESaIS2_EEvE7releaseEv, symObjAddr: 0xB4C4, symBinAddr: 0x10000BC04, symSize: 0x1C }
  - { offset: 0x2A37E, size: 0x8, addend: 0x0, symName: __ZSt10_ConstructISt6vectorISt4pairIiiESaIS2_EEJRKS4_EEvPT_DpOT0_, symObjAddr: 0xB428, symBinAddr: 0x10000BB68, symSize: 0x9C }
  - { offset: 0x2A40F, size: 0x8, addend: 0x0, symName: __ZNSt19_UninitDestroyGuardIPSt6vectorISt4pairIiiESaIS2_EEvED1Ev, symObjAddr: 0xB3D0, symBinAddr: 0x10000BB10, symSize: 0x58 }
  - { offset: 0x2A45C, size: 0x8, addend: 0x0, symName: __ZNSt19_UninitDestroyGuardIPSt6vectorISt4pairIiiESaIS2_EEvEC1ERS5_, symObjAddr: 0xB39C, symBinAddr: 0x10000BADC, symSize: 0x34 }
  - { offset: 0x2A487, size: 0x8, addend: 0x0, symName: __ZSt9__fill_a1IPSt6vectorISt4pairIiiESaIS2_EES4_EvT_S6_RKT0_, symObjAddr: 0xB340, symBinAddr: 0x10000BA80, symSize: 0x5C }
  - { offset: 0x2A52A, size: 0x8, addend: 0x0, symName: __ZSt8_DestroyISt6vectorISt4pairIiiESaIS2_EEEvPT_, symObjAddr: 0xB320, symBinAddr: 0x10000BA60, symSize: 0x20 }
  - { offset: 0x2A57E, size: 0x8, addend: 0x0, symName: __ZNSt12_Vector_baseISt6vectorISt4pairIiiESaIS2_EESaIS4_EE11_M_allocateEm, symObjAddr: 0xB2D0, symBinAddr: 0x10000BA10, symSize: 0x50 }
  - { offset: 0x2A617, size: 0x8, addend: 0x0, symName: __ZNSt19_UninitDestroyGuardIPNSt7__cxx1112basic_stringIcSt11char_traitsIcESaIcEEEvE7releaseEv, symObjAddr: 0xB2B4, symBinAddr: 0x10000B9F4, symSize: 0x1C }
  - { offset: 0x2A63D, size: 0x8, addend: 0x0, symName: __ZSt10_ConstructINSt7__cxx1112basic_stringIcSt11char_traitsIcESaIcEEEJRKS5_EEvPT_DpOT0_, symObjAddr: 0xB218, symBinAddr: 0x10000B958, symSize: 0x9C }
  - { offset: 0x2A6CE, size: 0x8, addend: 0x0, symName: __ZNSt19_UninitDestroyGuardIPNSt7__cxx1112basic_stringIcSt11char_traitsIcESaIcEEEvED1Ev, symObjAddr: 0xB1C0, symBinAddr: 0x10000B900, symSize: 0x58 }
  - { offset: 0x2A71B, size: 0x8, addend: 0x0, symName: __ZNSt19_UninitDestroyGuardIPNSt7__cxx1112basic_stringIcSt11char_traitsIcESaIcEEEvEC1ERS6_, symObjAddr: 0xB18C, symBinAddr: 0x10000B8CC, symSize: 0x34 }
  - { offset: 0x2A746, size: 0x8, addend: 0x0, symName: __ZSt9__fill_a1IPNSt7__cxx1112basic_stringIcSt11char_traitsIcESaIcEEES5_EvT_S7_RKT0_, symObjAddr: 0xB130, symBinAddr: 0x10000B870, symSize: 0x5C }
  - { offset: 0x2A808, size: 0x8, addend: 0x0, symName: __ZNSt8_Rb_treeI8FractionS0_St9_IdentityIS0_ESt4lessIS0_ESaIS0_EE17_M_construct_nodeIJRKS0_EEEvPSt13_Rb_tree_nodeIS0_EDpOT_, symObjAddr: 0xB030, symBinAddr: 0x10000B770, symSize: 0x100 }
  - { offset: 0x2A986, size: 0x8, addend: 0x0, symName: __ZNSt8_Rb_treeI8FractionS0_St9_IdentityIS0_ESt4lessIS0_ESaIS0_EE11_M_get_nodeEv, symObjAddr: 0xAFF4, symBinAddr: 0x10000B734, symSize: 0x3C }
  - { offset: 0x2A9DD, size: 0x8, addend: 0x0, symName: __ZNKSt13_Rb_tree_nodeI8FractionE9_M_valptrEv, symObjAddr: 0xAFD4, symBinAddr: 0x10000B714, symSize: 0x20 }
  - { offset: 0x2AA07, size: 0x8, addend: 0x0, symName: __ZNSt15__new_allocatorISt13_Rb_tree_nodeI8FractionEE10deallocateEPS2_m, symObjAddr: 0xAF98, symBinAddr: 0x10000B6D8, symSize: 0x3C }
  - { offset: 0x2AA7D, size: 0x8, addend: 0x0, symName: __ZN9__gnu_cxx16__aligned_membufI8FractionE6_M_ptrEv, symObjAddr: 0xAF7C, symBinAddr: 0x10000B6BC, symSize: 0x1C }
  - { offset: 0x2AAA3, size: 0x8, addend: 0x0, symName: __ZSt14__relocate_a_1IPSt4pairIiiES2_SaIS1_EET0_T_S5_S4_RT1_, symObjAddr: 0xAF04, symBinAddr: 0x10000B644, symSize: 0x78 }
  - { offset: 0x2AB97, size: 0x8, addend: 0x0, symName: __ZNSt15__new_allocatorISt4pairIiiEE8allocateEmPKv, symObjAddr: 0xAE88, symBinAddr: 0x10000B5C8, symSize: 0x7C }
  - { offset: 0x2AC0D, size: 0x8, addend: 0x0, symName: __ZNSt19_UninitDestroyGuardIPivE7releaseEv, symObjAddr: 0xAE6C, symBinAddr: 0x10000B5AC, symSize: 0x1C }
  - { offset: 0x2AC33, size: 0x8, addend: 0x0, symName: __ZSt10_ConstructIiJRKiEEvPT_DpOT0_, symObjAddr: 0xAE0C, symBinAddr: 0x10000B54C, symSize: 0x60 }
  - { offset: 0x2ACC4, size: 0x8, addend: 0x0, symName: __ZNSt19_UninitDestroyGuardIPivED1Ev, symObjAddr: 0xADB4, symBinAddr: 0x10000B4F4, symSize: 0x58 }
  - { offset: 0x2AD11, size: 0x8, addend: 0x0, symName: __ZNSt19_UninitDestroyGuardIPivEC1ERS0_, symObjAddr: 0xAD80, symBinAddr: 0x10000B4C0, symSize: 0x34 }
  - { offset: 0x2AD3C, size: 0x8, addend: 0x0, symName: __ZSt23__copy_move_backward_a2ILb1EPiS0_ET1_T0_S2_S1_, symObjAddr: 0xAC8C, symBinAddr: 0x10000B3CC, symSize: 0xF4 }
  - { offset: 0x2AEF0, size: 0x8, addend: 0x0, symName: __ZSt16__do_uninit_copyISt13move_iteratorIPiES2_S1_ET1_T_T0_S3_, symObjAddr: 0xABDC, symBinAddr: 0x10000B31C, symSize: 0xB0 }
  - { offset: 0x2AFEA, size: 0x8, addend: 0x0, symName: __ZSt10_ConstructIiJEEvPT_DpOT0_, symObjAddr: 0xAB90, symBinAddr: 0x10000B2D0, symSize: 0x4C }
  - { offset: 0x2B02E, size: 0x8, addend: 0x0, symName: __ZNKSt4lessIPKcEclES1_S1_, symObjAddr: 0xAB3C, symBinAddr: 0x10000B27C, symSize: 0x54 }
  - { offset: 0x2B0C8, size: 0x8, addend: 0x0, symName: __ZNSt15__new_allocatorIcE8allocateEmPKv, symObjAddr: 0xAAD8, symBinAddr: 0x10000B218, symSize: 0x64 }
  - { offset: 0x2B13A, size: 0x8, addend: 0x0, symName: __ZSt8_DestroyINSt7__cxx1112basic_stringIcSt11char_traitsIcESaIcEEEEvPT_, symObjAddr: 0xAAB8, symBinAddr: 0x10000B1F8, symSize: 0x20 }
  - { offset: 0x2B16C, size: 0x8, addend: 0x0, symName: __ZSt14__relocate_a_1IPNSt7__cxx1112basic_stringIcSt11char_traitsIcESaIcEEES6_SaIS5_EET0_T_S9_S8_RT1_, symObjAddr: 0xAA40, symBinAddr: 0x10000B180, symSize: 0x78 }
  - { offset: 0x2B260, size: 0x8, addend: 0x0, symName: __ZNSt15__new_allocatorINSt7__cxx1112basic_stringIcSt11char_traitsIcESaIcEEEE8allocateEmPKv, symObjAddr: 0xA9C4, symBinAddr: 0x10000B104, symSize: 0x7C }
  - { offset: 0x2B2D2, size: 0x8, addend: 0x0, symName: __ZNSt27__uninitialized_default_n_1ILb0EE18__uninit_default_nIPNSt7__cxx1112basic_stringIcSt11char_traitsIcESaIcEEEmEET_S9_T0_, symObjAddr: 0xA948, symBinAddr: 0x10000B088, symSize: 0x7C }
  - { offset: 0x2B36A, size: 0x8, addend: 0x0, symName: __ZSt25__unguarded_linear_insertISt16reverse_iteratorIN9__gnu_cxx17__normal_iteratorIP8FractionSt6vectorIS3_SaIS3_EEEEENS1_5__ops14_Val_less_iterEEvT_T0_, symObjAddr: 0xA880, symBinAddr: 0x10000AFC0, symSize: 0xC8 }
  - { offset: 0x2B4D0, size: 0x8, addend: 0x0, symName: __ZNK9__gnu_cxx5__ops15_Iter_less_iterclISt16reverse_iteratorINS_17__normal_iteratorIP8FractionSt6vectorIS5_SaIS5_EEEEESB_EEbT_T0_, symObjAddr: 0xA83C, symBinAddr: 0x10000AF7C, symSize: 0x44 }
  - { offset: 0x2B52E, size: 0x8, addend: 0x0, symName: __ZNSt16reverse_iteratorIN9__gnu_cxx17__normal_iteratorIP8FractionSt6vectorIS2_SaIS2_EEEEEppEv, symObjAddr: 0xA80C, symBinAddr: 0x10000AF4C, symSize: 0x30 }
  - { offset: 0x2B578, size: 0x8, addend: 0x0, symName: __ZSt21__unguarded_partitionISt16reverse_iteratorIN9__gnu_cxx17__normal_iteratorIP8FractionSt6vectorIS3_SaIS3_EEEEENS1_5__ops15_Iter_less_iterEET_SC_SC_SC_T0_, symObjAddr: 0xA6F0, symBinAddr: 0x10000AE30, symSize: 0x11C }
  - { offset: 0x2B5EC, size: 0x8, addend: 0x0, symName: __ZStltIN9__gnu_cxx17__normal_iteratorIP8FractionSt6vectorIS2_SaIS2_EEEEEbRKSt16reverse_iteratorIT_ESC_, symObjAddr: 0xA694, symBinAddr: 0x10000ADD4, symSize: 0x5C }
  - { offset: 0x2B69F, size: 0x8, addend: 0x0, symName: __ZSt22__move_median_to_firstISt16reverse_iteratorIN9__gnu_cxx17__normal_iteratorIP8FractionSt6vectorIS3_SaIS3_EEEEENS1_5__ops15_Iter_less_iterEEvT_SC_SC_SC_T0_, symObjAddr: 0xA47C, symBinAddr: 0x10000ABBC, symSize: 0x218 }
  - { offset: 0x2B727, size: 0x8, addend: 0x0, symName: __ZNKSt16reverse_iteratorIN9__gnu_cxx17__normal_iteratorIP8FractionSt6vectorIS2_SaIS2_EEEEEmiEl, symObjAddr: 0xA410, symBinAddr: 0x10000AB50, symSize: 0x6C }
  - { offset: 0x2B7B2, size: 0x8, addend: 0x0, symName: __ZSt11__sort_heapISt16reverse_iteratorIN9__gnu_cxx17__normal_iteratorIP8FractionSt6vectorIS3_SaIS3_EEEEENS1_5__ops15_Iter_less_iterEEvT_SC_RT0_, symObjAddr: 0xA384, symBinAddr: 0x10000AAC4, symSize: 0x8C }
  - { offset: 0x2B812, size: 0x8, addend: 0x0, symName: __ZSt13__heap_selectISt16reverse_iteratorIN9__gnu_cxx17__normal_iteratorIP8FractionSt6vectorIS3_SaIS3_EEEEENS1_5__ops15_Iter_less_iterEEvT_SC_SC_T0_, symObjAddr: 0xA298, symBinAddr: 0x10000A9D8, symSize: 0xEC }
  - { offset: 0x2B8AC, size: 0x8, addend: 0x0, symName: __ZSt18uninitialized_copyISt23_Rb_tree_const_iteratorI8FractionEPS1_ET0_T_S5_S4_, symObjAddr: 0xA26C, symBinAddr: 0x10000A9AC, symSize: 0x2C }
  - { offset: 0x2B92B, size: 0x8, addend: 0x0, symName: __ZNSt6vectorI8FractionSaIS0_EE11_S_max_sizeERKS1_, symObjAddr: 0xA218, symBinAddr: 0x10000A958, symSize: 0x54 }
  - { offset: 0x2B9E6, size: 0x8, addend: 0x0, symName: __ZNSt23_Rb_tree_const_iteratorI8FractionEppEv, symObjAddr: 0xA1E8, symBinAddr: 0x10000A928, symSize: 0x30 }
  - { offset: 0x2BA12, size: 0x8, addend: 0x0, symName: __ZStneRKSt23_Rb_tree_const_iteratorI8FractionES3_, symObjAddr: 0xA1B8, symBinAddr: 0x10000A8F8, symSize: 0x30 }
  - { offset: 0x2BA51, size: 0x8, addend: 0x0, symName: __ZNSt15__new_allocatorI8FractionE10deallocateEPS0_m, symObjAddr: 0xA188, symBinAddr: 0x10000A8C8, symSize: 0x30 }
  - { offset: 0x2BAF6, size: 0x8, addend: 0x0, symName: __ZSt18__do_uninit_fill_nIPSt4pairIiiEmS1_ET_S3_T0_RKT1_, symObjAddr: 0xA0F8, symBinAddr: 0x10000A838, symSize: 0x90 }
  - { offset: 0x2BBFE, size: 0x8, addend: 0x0, symName: __ZNSt12_Vector_baseISt4pairIiiESaIS1_EE17_M_create_storageEm, symObjAddr: 0xA098, symBinAddr: 0x10000A7D8, symSize: 0x60 }
  - { offset: 0x2BC35, size: 0x8, addend: 0x0, symName: __ZNSt6vectorISt4pairIiiESaIS1_EE11_S_max_sizeERKS2_, symObjAddr: 0xA044, symBinAddr: 0x10000A784, symSize: 0x54 }
  - { offset: 0x2BD17, size: 0x8, addend: 0x0, symName: __ZNSt12_Vector_baseISt4pairIiiESaIS1_EE12_Vector_implC1ERKS2_, symObjAddr: 0x9FF8, symBinAddr: 0x10000A738, symSize: 0x4C }
  - { offset: 0x2BDDE, size: 0x8, addend: 0x0, symName: __ZSt18__do_uninit_fill_nIPSt6vectorISt4pairIiiESaIS2_EEmS4_ET_S6_T0_RKT1_, symObjAddr: 0x9F50, symBinAddr: 0x10000A690, symSize: 0xA8 }
  - { offset: 0x2BEE2, size: 0x8, addend: 0x0, symName: __ZSt8_DestroyIPSt6vectorISt4pairIiiESaIS2_EEEvT_S6_, symObjAddr: 0x9F00, symBinAddr: 0x10000A640, symSize: 0x50 }
  - { offset: 0x2BF4B, size: 0x8, addend: 0x0, symName: __ZNSt12_Vector_baseISt6vectorISt4pairIiiESaIS2_EESaIS4_EE17_M_create_storageEm, symObjAddr: 0x9E94, symBinAddr: 0x10000A5D4, symSize: 0x6C }
  - { offset: 0x2BFAD, size: 0x8, addend: 0x0, symName: __ZNSt12_Vector_baseISt6vectorISt4pairIiiESaIS2_EESaIS4_EE12_Vector_implC1ERKS5_, symObjAddr: 0x9E48, symBinAddr: 0x10000A588, symSize: 0x4C }
  - { offset: 0x2C053, size: 0x8, addend: 0x0, symName: __ZNSt6vectorIS_ISt4pairIiiESaIS1_EESaIS3_EE11_S_max_sizeERKS4_, symObjAddr: 0x9DEC, symBinAddr: 0x10000A52C, symSize: 0x5C }
  - { offset: 0x2C14E, size: 0x8, addend: 0x0, symName: __ZSt18__do_uninit_fill_nIPNSt7__cxx1112basic_stringIcSt11char_traitsIcESaIcEEEmS5_ET_S7_T0_RKT1_, symObjAddr: 0x9D44, symBinAddr: 0x10000A484, symSize: 0xA8 }
  - { offset: 0x2C256, size: 0x8, addend: 0x0, symName: __ZNSt12_Vector_baseINSt7__cxx1112basic_stringIcSt11char_traitsIcESaIcEEESaIS5_EE17_M_create_storageEm, symObjAddr: 0x9CE4, symBinAddr: 0x10000A424, symSize: 0x60 }
  - { offset: 0x2C2B8, size: 0x8, addend: 0x0, symName: __ZNSt12_Vector_baseINSt7__cxx1112basic_stringIcSt11char_traitsIcESaIcEEESaIS5_EE12_Vector_implC1ERKS6_, symObjAddr: 0x9C98, symBinAddr: 0x10000A3D8, symSize: 0x4C }
  - { offset: 0x2C378, size: 0x8, addend: 0x0, symName: __ZNSt8_Rb_treeI8FractionS0_St9_IdentityIS0_ESt4lessIS0_ESaIS0_EE14_M_create_nodeIJRKS0_EEEPSt13_Rb_tree_nodeIS0_EDpOT_, symObjAddr: 0x9C54, symBinAddr: 0x10000A394, symSize: 0x44 }
  - { offset: 0x2C446, size: 0x8, addend: 0x0, symName: __ZNSt8_Rb_treeI8FractionS0_St9_IdentityIS0_ESt4lessIS0_ESaIS0_EE6_S_keyERKSt13_Rb_tree_nodeIS0_E, symObjAddr: 0x9C2C, symBinAddr: 0x10000A36C, symSize: 0x28 }
  - { offset: 0x2C4D3, size: 0x8, addend: 0x0, symName: __ZNSt13_Rb_tree_nodeI8FractionE9_M_valptrEv, symObjAddr: 0x9C0C, symBinAddr: 0x10000A34C, symSize: 0x20 }
  - { offset: 0x2C4FD, size: 0x8, addend: 0x0, symName: __ZNSt8_Rb_treeI8FractionS0_St9_IdentityIS0_ESt4lessIS0_ESaIS0_EE21_M_get_Node_allocatorEv, symObjAddr: 0x9BF8, symBinAddr: 0x10000A338, symSize: 0x14 }
  - { offset: 0x2C523, size: 0x8, addend: 0x0, symName: __ZSt12__relocate_aIPSt4pairIiiES2_SaIS1_EET0_T_S5_S4_RT1_, symObjAddr: 0x9BAC, symBinAddr: 0x10000A2EC, symSize: 0x4C }
  - { offset: 0x2C62F, size: 0x8, addend: 0x0, symName: __ZNKSt6vectorISt4pairIiiESaIS1_EE8max_sizeEv, symObjAddr: 0x9B8C, symBinAddr: 0x10000A2CC, symSize: 0x20 }
  - { offset: 0x2C655, size: 0x8, addend: 0x0, symName: __ZSt18__do_uninit_fill_nIPimiET_S1_T0_RKT1_, symObjAddr: 0x9AFC, symBinAddr: 0x10000A23C, symSize: 0x90 }
  - { offset: 0x2C70C, size: 0x8, addend: 0x0, symName: __ZSt9__fill_a1IPiiEvT_S1_RKT0_, symObjAddr: 0x9A9C, symBinAddr: 0x10000A1DC, symSize: 0x60 }
  - { offset: 0x2C7E7, size: 0x8, addend: 0x0, symName: __ZSt18uninitialized_copyISt13move_iteratorIPiES1_ET0_T_S4_S3_, symObjAddr: 0x9A70, symBinAddr: 0x10000A1B0, symSize: 0x2C }
  - { offset: 0x2C86E, size: 0x8, addend: 0x0, symName: __ZNSt13move_iteratorIPiEC1ES0_, symObjAddr: 0x9A48, symBinAddr: 0x10000A188, symSize: 0x28 }
  - { offset: 0x2C96E, size: 0x8, addend: 0x0, symName: __ZSt14__relocate_a_1IiiENSt9enable_ifIXsrSt24__is_bitwise_relocatableIT_vE5valueEPS2_E4typeES4_S4_S4_RSaIT0_E, symObjAddr: 0x99E4, symBinAddr: 0x10000A124, symSize: 0x64 }
  - { offset: 0x2CA11, size: 0x8, addend: 0x0, symName: __ZNSt15__new_allocatorIiE8allocateEmPKv, symObjAddr: 0x9968, symBinAddr: 0x10000A0A8, symSize: 0x7C }
  - { offset: 0x2CA83, size: 0x8, addend: 0x0, symName: __ZNSt27__uninitialized_default_n_1ILb1EE18__uninit_default_nIPimEET_S3_T0_, symObjAddr: 0x9874, symBinAddr: 0x100009FB4, symSize: 0xF4 }
  - { offset: 0x2CBF8, size: 0x8, addend: 0x0, symName: __ZNSt7__cxx1112basic_stringIcSt11char_traitsIcESaIcEE15_M_replace_coldEPcmPKcmm, symObjAddr: 0x96DC, symBinAddr: 0x100009E1C, symSize: 0x198 }
  - { offset: 0x2CCBF, size: 0x8, addend: 0x0, symName: __ZNKSt7__cxx1112basic_stringIcSt11char_traitsIcESaIcEE11_M_disjunctEPKc, symObjAddr: 0x9658, symBinAddr: 0x100009D98, symSize: 0x84 }
  - { offset: 0x2CD6C, size: 0x8, addend: 0x0, symName: __ZSt8_DestroyIPNSt7__cxx1112basic_stringIcSt11char_traitsIcESaIcEEEEvT_S7_, symObjAddr: 0x9608, symBinAddr: 0x100009D48, symSize: 0x50 }
  - { offset: 0x2CDD1, size: 0x8, addend: 0x0, symName: __ZSt12__relocate_aIPNSt7__cxx1112basic_stringIcSt11char_traitsIcESaIcEEES6_SaIS5_EET0_T_S9_S8_RT1_, symObjAddr: 0x95BC, symBinAddr: 0x100009CFC, symSize: 0x4C }
  - { offset: 0x2CED9, size: 0x8, addend: 0x0, symName: __ZSt25__uninitialized_default_nIPNSt7__cxx1112basic_stringIcSt11char_traitsIcESaIcEEEmET_S7_T0_, symObjAddr: 0x9590, symBinAddr: 0x100009CD0, symSize: 0x2C }
  - { offset: 0x2CF3B, size: 0x8, addend: 0x0, symName: __ZNKSt12_Vector_baseINSt7__cxx1112basic_stringIcSt11char_traitsIcESaIcEEESaIS5_EE19_M_get_Tp_allocatorEv, symObjAddr: 0x957C, symBinAddr: 0x100009CBC, symSize: 0x14 }
  - { offset: 0x2CF61, size: 0x8, addend: 0x0, symName: __ZNSt6vectorINSt7__cxx1112basic_stringIcSt11char_traitsIcESaIcEEESaIS5_EE11_S_max_sizeERKS6_, symObjAddr: 0x9528, symBinAddr: 0x100009C68, symSize: 0x54 }
  - { offset: 0x2D018, size: 0x8, addend: 0x0, symName: __ZSt26__unguarded_insertion_sortISt16reverse_iteratorIN9__gnu_cxx17__normal_iteratorIP8FractionSt6vectorIS3_SaIS3_EEEEENS1_5__ops15_Iter_less_iterEEvT_SC_T0_, symObjAddr: 0x94AC, symBinAddr: 0x100009BEC, symSize: 0x7C }
  - { offset: 0x2D09C, size: 0x8, addend: 0x0, symName: __ZSt16__insertion_sortISt16reverse_iteratorIN9__gnu_cxx17__normal_iteratorIP8FractionSt6vectorIS3_SaIS3_EEEEENS1_5__ops15_Iter_less_iterEEvT_SC_T0_, symObjAddr: 0x921C, symBinAddr: 0x10000995C, symSize: 0x290 }
  - { offset: 0x2D23F, size: 0x8, addend: 0x0, symName: __ZNKSt16reverse_iteratorIN9__gnu_cxx17__normal_iteratorIP8FractionSt6vectorIS2_SaIS2_EEEEEdeEv, symObjAddr: 0x91E4, symBinAddr: 0x100009924, symSize: 0x38 }
  - { offset: 0x2D2E3, size: 0x8, addend: 0x0, symName: __ZNKSt16reverse_iteratorIN9__gnu_cxx17__normal_iteratorIP8FractionSt6vectorIS2_SaIS2_EEEEEplEl, symObjAddr: 0x9174, symBinAddr: 0x1000098B4, symSize: 0x70 }
  - { offset: 0x2D36E, size: 0x8, addend: 0x0, symName: __ZSt27__unguarded_partition_pivotISt16reverse_iteratorIN9__gnu_cxx17__normal_iteratorIP8FractionSt6vectorIS3_SaIS3_EEEEENS1_5__ops15_Iter_less_iterEET_SC_SC_T0_, symObjAddr: 0x9078, symBinAddr: 0x1000097B8, symSize: 0xFC }
  - { offset: 0x2D3E2, size: 0x8, addend: 0x0, symName: __ZSt14__partial_sortISt16reverse_iteratorIN9__gnu_cxx17__normal_iteratorIP8FractionSt6vectorIS3_SaIS3_EEEEENS1_5__ops15_Iter_less_iterEEvT_SC_SC_T0_, symObjAddr: 0x8FEC, symBinAddr: 0x10000972C, symSize: 0x8C }
  - { offset: 0x2D456, size: 0x8, addend: 0x0, symName: __ZSt22__uninitialized_copy_aISt23_Rb_tree_const_iteratorI8FractionES2_PS1_S1_ET1_T_T0_S4_RSaIT2_E, symObjAddr: 0x8FBC, symBinAddr: 0x1000096FC, symSize: 0x30 }
  - { offset: 0x2D4F7, size: 0x8, addend: 0x0, symName: __ZNSt12_Vector_baseI8FractionSaIS0_EE11_M_allocateEm, symObjAddr: 0x8F6C, symBinAddr: 0x1000096AC, symSize: 0x50 }
  - { offset: 0x2D55B, size: 0x8, addend: 0x0, symName: __ZNSt6vectorI8FractionSaIS0_EE17_S_check_init_lenEmRKS1_, symObjAddr: 0x8EE8, symBinAddr: 0x100009628, symSize: 0x84 }
  - { offset: 0x2D60D, size: 0x8, addend: 0x0, symName: __ZSt10__distanceISt23_Rb_tree_const_iteratorI8FractionEENSt15iterator_traitsIT_E15difference_typeES4_S4_St18input_iterator_tag, symObjAddr: 0x8E94, symBinAddr: 0x1000095D4, symSize: 0x54 }
  - { offset: 0x2D6B8, size: 0x8, addend: 0x0, symName: __ZNSt12_Vector_baseI8FractionSaIS0_EE17_Vector_impl_dataC2Ev, symObjAddr: 0x8E68, symBinAddr: 0x1000095A8, symSize: 0x2C }
  - { offset: 0x2D765, size: 0x8, addend: 0x0, symName: __ZSt20uninitialized_fill_nIPSt4pairIiiEmS1_ET_S3_T0_RKT1_, symObjAddr: 0x8E3C, symBinAddr: 0x10000957C, symSize: 0x2C }
  - { offset: 0x2D814, size: 0x8, addend: 0x0, symName: __ZNSt6vectorISt4pairIiiESaIS1_EE18_M_fill_initializeEmRKS1_, symObjAddr: 0x8DE4, symBinAddr: 0x100009524, symSize: 0x58 }
  - { offset: 0x2D896, size: 0x8, addend: 0x0, symName: __ZNSt12_Vector_baseISt4pairIiiESaIS1_EEC2EmRKS2_, symObjAddr: 0x8D90, symBinAddr: 0x1000094D0, symSize: 0x54 }
  - { offset: 0x2D8CA, size: 0x8, addend: 0x0, symName: __ZNSt6vectorISt4pairIiiESaIS1_EE17_S_check_init_lenEmRKS2_, symObjAddr: 0x8D0C, symBinAddr: 0x10000944C, symSize: 0x84 }
  - { offset: 0x2D980, size: 0x8, addend: 0x0, symName: __ZNSt12_Vector_baseISt4pairIiiESaIS1_EE17_Vector_impl_data12_M_copy_dataERKS4_, symObjAddr: 0x8CC4, symBinAddr: 0x100009404, symSize: 0x48 }
  - { offset: 0x2D9E2, size: 0x8, addend: 0x0, symName: __ZNSt12_Vector_baseISt4pairIiiESaIS1_EEC2ERKS2_, symObjAddr: 0x8C9C, symBinAddr: 0x1000093DC, symSize: 0x28 }
  - { offset: 0x2DA11, size: 0x8, addend: 0x0, symName: __ZNKSt12_Vector_baseISt4pairIiiESaIS1_EE19_M_get_Tp_allocatorEv, symObjAddr: 0x8C88, symBinAddr: 0x1000093C8, symSize: 0x14 }
  - { offset: 0x2DA9F, size: 0x8, addend: 0x0, symName: __ZSt20uninitialized_fill_nIPSt6vectorISt4pairIiiESaIS2_EEmS4_ET_S6_T0_RKT1_, symObjAddr: 0x8C5C, symBinAddr: 0x10000939C, symSize: 0x2C }
  - { offset: 0x2DB72, size: 0x8, addend: 0x0, symName: __ZNSt12_Vector_baseISt6vectorISt4pairIiiESaIS2_EESaIS4_EE17_Vector_impl_data12_M_copy_dataERKS7_, symObjAddr: 0x8C14, symBinAddr: 0x100009354, symSize: 0x48 }
  - { offset: 0x2DBE7, size: 0x8, addend: 0x0, symName: __ZNSt6vectorIS_ISt4pairIiiESaIS1_EESaIS3_EE18_M_fill_initializeEmRKS3_, symObjAddr: 0x8BBC, symBinAddr: 0x1000092FC, symSize: 0x58 }
  - { offset: 0x2DC69, size: 0x8, addend: 0x0, symName: __ZNSt12_Vector_baseISt6vectorISt4pairIiiESaIS2_EESaIS4_EEC2EmRKS5_, symObjAddr: 0x8B68, symBinAddr: 0x1000092A8, symSize: 0x54 }
  - { offset: 0x2DC9D, size: 0x8, addend: 0x0, symName: __ZNSt6vectorIS_ISt4pairIiiESaIS1_EESaIS3_EE17_S_check_init_lenEmRKS4_, symObjAddr: 0x8AE4, symBinAddr: 0x100009224, symSize: 0x84 }
  - { offset: 0x2DDB7, size: 0x8, addend: 0x0, symName: __ZSt20uninitialized_fill_nIPNSt7__cxx1112basic_stringIcSt11char_traitsIcESaIcEEEmS5_ET_S7_T0_RKT1_, symObjAddr: 0x8AB8, symBinAddr: 0x1000091F8, symSize: 0x2C }
  - { offset: 0x2DE8A, size: 0x8, addend: 0x0, symName: __ZNSt12_Vector_baseINSt7__cxx1112basic_stringIcSt11char_traitsIcESaIcEEESaIS5_EE17_Vector_impl_data12_M_copy_dataERKS8_, symObjAddr: 0x8A70, symBinAddr: 0x1000091B0, symSize: 0x48 }
  - { offset: 0x2DEC4, size: 0x8, addend: 0x0, symName: __ZNSt6vectorINSt7__cxx1112basic_stringIcSt11char_traitsIcESaIcEEESaIS5_EE18_M_fill_initializeEmRKS5_, symObjAddr: 0x8A18, symBinAddr: 0x100009158, symSize: 0x58 }
  - { offset: 0x2DF46, size: 0x8, addend: 0x0, symName: __ZNSt12_Vector_baseINSt7__cxx1112basic_stringIcSt11char_traitsIcESaIcEEESaIS5_EEC2EmRKS6_, symObjAddr: 0x89C4, symBinAddr: 0x100009104, symSize: 0x54 }
  - { offset: 0x2DF7A, size: 0x8, addend: 0x0, symName: __ZNSt6vectorINSt7__cxx1112basic_stringIcSt11char_traitsIcESaIcEEESaIS5_EE17_S_check_init_lenEmRKS6_, symObjAddr: 0x8940, symBinAddr: 0x100009080, symSize: 0x84 }
  - { offset: 0x2E06C, size: 0x8, addend: 0x0, symName: __ZNSt9__rb_tree12_Node_traitsI8FractionPS1_E23_S_insert_and_rebalanceEbPSt18_Rb_tree_node_baseS5_RS4_, symObjAddr: 0x8908, symBinAddr: 0x100009048, symSize: 0x38 }
  - { offset: 0x2E0D8, size: 0x8, addend: 0x0, symName: __ZNKSt8_Rb_treeI8FractionS0_St9_IdentityIS0_ESt4lessIS0_ESaIS0_EE11_Alloc_nodeclIRKS0_EEPSt13_Rb_tree_nodeIS0_EOT_, symObjAddr: 0x88D8, symBinAddr: 0x100009018, symSize: 0x30 }
  - { offset: 0x2E188, size: 0x8, addend: 0x0, symName: __ZNSt4pairIPSt18_Rb_tree_node_baseS1_EC1IRS1_S1_Lb1EEEOT_OT0_, symObjAddr: 0x888C, symBinAddr: 0x100008FCC, symSize: 0x4C }
  - { offset: 0x2E21A, size: 0x8, addend: 0x0, symName: __ZNSt17_Rb_tree_iteratorI8FractionEmmEv, symObjAddr: 0x885C, symBinAddr: 0x100008F9C, symSize: 0x30 }
  - { offset: 0x2E28C, size: 0x8, addend: 0x0, symName: __ZNSt4pairIPSt18_Rb_tree_node_baseS1_EC1IRS1_S4_Lb1EEEOT_OT0_, symObjAddr: 0x8810, symBinAddr: 0x100008F50, symSize: 0x4C }
  - { offset: 0x2E320, size: 0x8, addend: 0x0, symName: __ZSteqRKSt17_Rb_tree_iteratorI8FractionES3_, symObjAddr: 0x87E0, symBinAddr: 0x100008F20, symSize: 0x30 }
  - { offset: 0x2E35F, size: 0x8, addend: 0x0, symName: __ZNSt8_Rb_treeI8FractionS0_St9_IdentityIS0_ESt4lessIS0_ESaIS0_EE5beginEv, symObjAddr: 0x87B8, symBinAddr: 0x100008EF8, symSize: 0x28 }
  - { offset: 0x2E385, size: 0x8, addend: 0x0, symName: __ZNSt8_Rb_treeI8FractionS0_St9_IdentityIS0_ESt4lessIS0_ESaIS0_EE8_S_rightEPSt18_Rb_tree_node_base, symObjAddr: 0x87A0, symBinAddr: 0x100008EE0, symSize: 0x18 }
  - { offset: 0x2E3AF, size: 0x8, addend: 0x0, symName: __ZNSt8_Rb_treeI8FractionS0_St9_IdentityIS0_ESt4lessIS0_ESaIS0_EE7_S_leftEPSt18_Rb_tree_node_base, symObjAddr: 0x8788, symBinAddr: 0x100008EC8, symSize: 0x18 }
  - { offset: 0x2E3DD, size: 0x8, addend: 0x0, symName: __ZNKSt4lessI8FractionEclERKS0_S3_, symObjAddr: 0x8760, symBinAddr: 0x100008EA0, symSize: 0x28 }
  - { offset: 0x2E425, size: 0x8, addend: 0x0, symName: __ZNSt8_Rb_treeI8FractionS0_St9_IdentityIS0_ESt4lessIS0_ESaIS0_EE6_S_keyEPSt18_Rb_tree_node_base, symObjAddr: 0x8744, symBinAddr: 0x100008E84, symSize: 0x1C }
  - { offset: 0x2E453, size: 0x8, addend: 0x0, symName: __ZNKSt8_Rb_treeI8FractionS0_St9_IdentityIS0_ESt4lessIS0_ESaIS0_EE8_M_beginEv, symObjAddr: 0x872C, symBinAddr: 0x100008E6C, symSize: 0x18 }
  - { offset: 0x2E47D, size: 0x8, addend: 0x0, symName: __ZNSt8_Rb_treeI8FractionS0_St9_IdentityIS0_ESt4lessIS0_ESaIS0_EE11_M_put_nodeEPSt13_Rb_tree_nodeIS0_E, symObjAddr: 0x86E0, symBinAddr: 0x100008E20, symSize: 0x4C }
  - { offset: 0x2E4EE, size: 0x8, addend: 0x0, symName: __ZNSt8_Rb_treeI8FractionS0_St9_IdentityIS0_ESt4lessIS0_ESaIS0_EE15_M_destroy_nodeEPSt13_Rb_tree_nodeIS0_E, symObjAddr: 0x8688, symBinAddr: 0x100008DC8, symSize: 0x58 }
  - { offset: 0x2E5A3, size: 0x8, addend: 0x0, symName: __ZNSt6vectorISt4pairIiiESaIS1_EE11_S_relocateEPS1_S4_S4_RS2_, symObjAddr: 0x8654, symBinAddr: 0x100008D94, symSize: 0x34 }
  - { offset: 0x2E63C, size: 0x8, addend: 0x0, symName: __ZNSt6vectorISt4pairIiiESaIS1_EE12_Guard_allocD1Ev, symObjAddr: 0x8608, symBinAddr: 0x100008D48, symSize: 0x4C }
  - { offset: 0x2E6A6, size: 0x8, addend: 0x0, symName: __ZNSt6vectorISt4pairIiiESaIS1_EE12_Guard_allocC1EPS1_mRSt12_Vector_baseIS1_S2_E, symObjAddr: 0x85C4, symBinAddr: 0x100008D04, symSize: 0x44 }
  - { offset: 0x2E6E7, size: 0x8, addend: 0x0, symName: __ZNSt12_Vector_baseISt4pairIiiESaIS1_EE11_M_allocateEm, symObjAddr: 0x8574, symBinAddr: 0x100008CB4, symSize: 0x50 }
  - { offset: 0x2E78B, size: 0x8, addend: 0x0, symName: __ZNKSt6vectorISt4pairIiiESaIS1_EE12_M_check_lenEmPKc, symObjAddr: 0x84A4, symBinAddr: 0x100008BE4, symSize: 0xD0 }
  - { offset: 0x2E82E, size: 0x8, addend: 0x0, symName: __ZNSt15__new_allocatorISt4pairIiiEE10deallocateEPS1_m, symObjAddr: 0x8474, symBinAddr: 0x100008BB4, symSize: 0x30 }
  - { offset: 0x2E878, size: 0x8, addend: 0x0, symName: __ZNSt15__new_allocatorISt6vectorISt4pairIiiESaIS2_EEE10deallocateEPS4_m, symObjAddr: 0x8438, symBinAddr: 0x100008B78, symSize: 0x3C }
  - { offset: 0x2E8C2, size: 0x8, addend: 0x0, symName: __ZNSt15__new_allocatorINSt7__cxx1112basic_stringIcSt11char_traitsIcESaIcEEEE10deallocateEPS5_m, symObjAddr: 0x8408, symBinAddr: 0x100008B48, symSize: 0x30 }
  - { offset: 0x2E908, size: 0x8, addend: 0x0, symName: __ZSt32__make_move_if_noexcept_iteratorIiSt13move_iteratorIPiEET0_PT_, symObjAddr: 0x83E4, symBinAddr: 0x100008B24, symSize: 0x24 }
  - { offset: 0x2E944, size: 0x8, addend: 0x0, symName: __ZSt20uninitialized_fill_nIPimiET_S1_T0_RKT1_, symObjAddr: 0x83B8, symBinAddr: 0x100008AF8, symSize: 0x2C }
  - { offset: 0x2EA3D, size: 0x8, addend: 0x0, symName: __ZSt12__miter_baseIPiET_S1_, symObjAddr: 0x83A4, symBinAddr: 0x100008AE4, symSize: 0x14 }
  - { offset: 0x2EA70, size: 0x8, addend: 0x0, symName: __ZSt22__uninitialized_copy_aISt13move_iteratorIPiES2_S1_iET1_T_T0_S3_RSaIT2_E, symObjAddr: 0x8374, symBinAddr: 0x100008AB4, symSize: 0x30 }
  - { offset: 0x2EAE9, size: 0x8, addend: 0x0, symName: __ZSt18make_move_iteratorIPiESt13move_iteratorIT_ES2_, symObjAddr: 0x834C, symBinAddr: 0x100008A8C, symSize: 0x28 }
  - { offset: 0x2EBDA, size: 0x8, addend: 0x0, symName: __ZNSt6vectorIiSaIiEE16_Temporary_value6_M_ptrEv, symObjAddr: 0x832C, symBinAddr: 0x100008A6C, symSize: 0x20 }
  - { offset: 0x2EC42, size: 0x8, addend: 0x0, symName: __ZNSt6vectorIiSaIiEE16_Temporary_value8_StorageD1Ev, symObjAddr: 0x8318, symBinAddr: 0x100008A58, symSize: 0x14 }
  - { offset: 0x2EC82, size: 0x8, addend: 0x0, symName: __ZNSt6vectorIiSaIiEE16_Temporary_value8_StorageC1Ev, symObjAddr: 0x82FC, symBinAddr: 0x100008A3C, symSize: 0x1C }
  - { offset: 0x2ECA4, size: 0x8, addend: 0x0, symName: __ZSt12__relocate_aIPiS0_SaIiEET0_T_S3_S2_RT1_, symObjAddr: 0x82B0, symBinAddr: 0x1000089F0, symSize: 0x4C }
  - { offset: 0x2EDAC, size: 0x8, addend: 0x0, symName: __ZSt25__uninitialized_default_nIPimET_S1_T0_, symObjAddr: 0x8284, symBinAddr: 0x1000089C4, symSize: 0x2C }
  - { offset: 0x2EE0E, size: 0x8, addend: 0x0, symName: __ZNKSt12_Vector_baseIiSaIiEE19_M_get_Tp_allocatorEv, symObjAddr: 0x8270, symBinAddr: 0x1000089B0, symSize: 0x14 }
  - { offset: 0x2EE38, size: 0x8, addend: 0x0, symName: __ZNSt15__new_allocatorIiE10deallocateEPim, symObjAddr: 0x8240, symBinAddr: 0x100008980, symSize: 0x30 }
  - { offset: 0x2EE86, size: 0x8, addend: 0x0, symName: __ZNSt7__cxx1112basic_stringIcSt11char_traitsIcESaIcEE9_M_mutateEmmPKcm, symObjAddr: 0x80E8, symBinAddr: 0x100008828, symSize: 0x158 }
  - { offset: 0x2EF24, size: 0x8, addend: 0x0, symName: __ZNSt7__cxx1112basic_stringIcSt11char_traitsIcESaIcEE7_S_moveEPcPKcm, symObjAddr: 0x809C, symBinAddr: 0x1000087DC, symSize: 0x4C }
  - { offset: 0x2EF74, size: 0x8, addend: 0x0, symName: __ZNSt15__new_allocatorIcE10deallocateEPcm, symObjAddr: 0x8074, symBinAddr: 0x1000087B4, symSize: 0x28 }
  - { offset: 0x2EFBA, size: 0x8, addend: 0x0, symName: __ZSt13__countl_zeroImEiT_, symObjAddr: 0x8054, symBinAddr: 0x100008794, symSize: 0x20 }
  - { offset: 0x2F004, size: 0x8, addend: 0x0, symName: __ZNSt7__cxx1112basic_stringIcSt11char_traitsIcESaIcEE10_M_replaceEmmPKcm, symObjAddr: 0x7EC8, symBinAddr: 0x100008608, symSize: 0x18C }
  - { offset: 0x2F12B, size: 0x8, addend: 0x0, symName: __ZNSt19__ptr_traits_ptr_toIPKcS0_Lb0EE10pointer_toERS0_, symObjAddr: 0x7EA0, symBinAddr: 0x1000085E0, symSize: 0x28 }
  - { offset: 0x2F19A, size: 0x8, addend: 0x0, symName: __ZNSt7__cxx1112basic_stringIcSt11char_traitsIcESaIcEE11_S_allocateERS3_m, symObjAddr: 0x7E5C, symBinAddr: 0x10000859C, symSize: 0x44 }
  - { offset: 0x2F283, size: 0x8, addend: 0x0, symName: __ZNSt6vectorINSt7__cxx1112basic_stringIcSt11char_traitsIcESaIcEEESaIS5_EE11_S_relocateEPS5_S8_S8_RS6_, symObjAddr: 0x7E28, symBinAddr: 0x100008568, symSize: 0x34 }
  - { offset: 0x2F2FE, size: 0x8, addend: 0x0, symName: __ZNSt6vectorINSt7__cxx1112basic_stringIcSt11char_traitsIcESaIcEEESaIS5_EE12_Guard_allocD1Ev, symObjAddr: 0x7DDC, symBinAddr: 0x10000851C, symSize: 0x4C }
  - { offset: 0x2F368, size: 0x8, addend: 0x0, symName: __ZNSt6vectorINSt7__cxx1112basic_stringIcSt11char_traitsIcESaIcEEESaIS5_EE12_Guard_allocC1EPS5_mRSt12_Vector_baseIS5_S6_E, symObjAddr: 0x7D98, symBinAddr: 0x1000084D8, symSize: 0x44 }
  - { offset: 0x2F3A9, size: 0x8, addend: 0x0, symName: __ZNSt12_Vector_baseINSt7__cxx1112basic_stringIcSt11char_traitsIcESaIcEEESaIS5_EE11_M_allocateEm, symObjAddr: 0x7D48, symBinAddr: 0x100008488, symSize: 0x50 }
  - { offset: 0x2F411, size: 0x8, addend: 0x0, symName: __ZNKSt6vectorINSt7__cxx1112basic_stringIcSt11char_traitsIcESaIcEEESaIS5_EE12_M_check_lenEmPKc, symObjAddr: 0x7C78, symBinAddr: 0x1000083B8, symSize: 0xD0 }
  - { offset: 0x2F46A, size: 0x8, addend: 0x0, symName: __ZSt27__uninitialized_default_n_aIPNSt7__cxx1112basic_stringIcSt11char_traitsIcESaIcEEEmS5_ET_S7_T0_RSaIT1_E, symObjAddr: 0x7C50, symBinAddr: 0x100008390, symSize: 0x28 }
  - { offset: 0x2F4CD, size: 0x8, addend: 0x0, symName: __ZNKSt6vectorINSt7__cxx1112basic_stringIcSt11char_traitsIcESaIcEEESaIS5_EE8max_sizeEv, symObjAddr: 0x7C30, symBinAddr: 0x100008370, symSize: 0x20 }
  - { offset: 0x2F4F7, size: 0x8, addend: 0x0, symName: __ZNSt7__cxx1112basic_stringIcSt11char_traitsIcESaIcEE6appendEPKcm, symObjAddr: 0x7BEC, symBinAddr: 0x10000832C, symSize: 0x44 }
  - { offset: 0x2F547, size: 0x8, addend: 0x0, symName: __ZNSt7__cxx1112basic_stringIcSt11char_traitsIcESaIcEE9_M_appendEPKcm, symObjAddr: 0x7B24, symBinAddr: 0x100008264, symSize: 0xC8 }
  - { offset: 0x2F5A4, size: 0x8, addend: 0x0, symName: __ZNKSt7__cxx1112basic_stringIcSt11char_traitsIcESaIcEE15_M_check_lengthEmmPKc, symObjAddr: 0x7AB0, symBinAddr: 0x1000081F0, symSize: 0x74 }
  - { offset: 0x2F5FD, size: 0x8, addend: 0x0, symName: __ZSt22__final_insertion_sortISt16reverse_iteratorIN9__gnu_cxx17__normal_iteratorIP8FractionSt6vectorIS3_SaIS3_EEEEENS1_5__ops15_Iter_less_iterEEvT_SC_T0_, symObjAddr: 0x79D0, symBinAddr: 0x100008110, symSize: 0xE0 }
  - { offset: 0x2F65E, size: 0x8, addend: 0x0, symName: __ZSt16__introsort_loopISt16reverse_iteratorIN9__gnu_cxx17__normal_iteratorIP8FractionSt6vectorIS3_SaIS3_EEEEElNS1_5__ops15_Iter_less_iterEEvT_SC_T0_T1_, symObjAddr: 0x78B8, symBinAddr: 0x100007FF8, symSize: 0x118 }
  - { offset: 0x2F736, size: 0x8, addend: 0x0, symName: __ZSt4__lgIlET_S0_, symObjAddr: 0x7894, symBinAddr: 0x100007FD4, symSize: 0x24 }
  - { offset: 0x2F79F, size: 0x8, addend: 0x0, symName: __ZSt8_DestroyIP8FractionEvT_S2_, symObjAddr: 0x787C, symBinAddr: 0x100007FBC, symSize: 0x18 }
  - { offset: 0x2F7E5, size: 0x8, addend: 0x0, symName: __ZNSt6vectorI8FractionSaIS0_EE21_M_range_initialize_nISt23_Rb_tree_const_iteratorIS0_ES5_EEvT_T0_m, symObjAddr: 0x77C8, symBinAddr: 0x100007F08, symSize: 0xB4 }
  - { offset: 0x2F8B1, size: 0x8, addend: 0x0, symName: __ZNSt12_Vector_baseI8FractionSaIS0_EE13_M_deallocateEPS0_m, symObjAddr: 0x7770, symBinAddr: 0x100007EB0, symSize: 0x58 }
  - { offset: 0x2F95A, size: 0x8, addend: 0x0, symName: __ZNSt12_Vector_baseI8FractionSaIS0_EE12_Vector_implC1ERKS1_, symObjAddr: 0x7724, symBinAddr: 0x100007E64, symSize: 0x4C }
  - { offset: 0x2F9E1, size: 0x8, addend: 0x0, symName: __ZNKSt8_Rb_treeI8FractionS0_St9_IdentityIS0_ESt4lessIS0_ESaIS0_EE6_M_endEv, symObjAddr: 0x7704, symBinAddr: 0x100007E44, symSize: 0x20 }
  - { offset: 0x2FA33, size: 0x8, addend: 0x0, symName: __ZNSt23_Rb_tree_const_iteratorI8FractionEC1EPSt18_Rb_tree_node_base, symObjAddr: 0x76E0, symBinAddr: 0x100007E20, symSize: 0x24 }
  - { offset: 0x2FAAF, size: 0x8, addend: 0x0, symName: __ZNSt6vectorISt4pairIiiESaIS1_EE15_M_erase_at_endEPS1_, symObjAddr: 0x7658, symBinAddr: 0x100007D98, symSize: 0x88 }
  - { offset: 0x2FB40, size: 0x8, addend: 0x0, symName: __ZSt24__uninitialized_fill_n_aIPSt4pairIiiEmS1_S1_ET_S3_T0_RKT1_RSaIT2_E, symObjAddr: 0x7628, symBinAddr: 0x100007D68, symSize: 0x30 }
  - { offset: 0x2FC45, size: 0x8, addend: 0x0, symName: __ZNSt6vectorISt4pairIiiESaIS1_EEC1EmRKS1_RKS2_, symObjAddr: 0x75B8, symBinAddr: 0x100007CF8, symSize: 0x70 }
  - { offset: 0x2FC86, size: 0x8, addend: 0x0, symName: __ZNKSt6vectorISt4pairIiiESaIS1_EE8capacityEv, symObjAddr: 0x7578, symBinAddr: 0x100007CB8, symSize: 0x40 }
  - { offset: 0x2FD28, size: 0x8, addend: 0x0, symName: __ZNSt12_Vector_baseISt4pairIiiESaIS1_EE17_Vector_impl_data12_M_swap_dataERS4_, symObjAddr: 0x752C, symBinAddr: 0x100007C6C, symSize: 0x4C }
  - { offset: 0x2FD9A, size: 0x8, addend: 0x0, symName: __ZNSt6vectorISt4pairIiiESaIS1_EEC1ERKS2_, symObjAddr: 0x7504, symBinAddr: 0x100007C44, symSize: 0x28 }
  - { offset: 0x2FDC9, size: 0x8, addend: 0x0, symName: __ZNKSt12_Vector_baseISt4pairIiiESaIS1_EE13get_allocatorEv, symObjAddr: 0x74B4, symBinAddr: 0x100007BF4, symSize: 0x50 }
  - { offset: 0x2FE99, size: 0x8, addend: 0x0, symName: __ZNSt6vectorIS_ISt4pairIiiESaIS1_EESaIS3_EE15_M_erase_at_endEPS3_, symObjAddr: 0x7420, symBinAddr: 0x100007B60, symSize: 0x94 }
  - { offset: 0x2FF2A, size: 0x8, addend: 0x0, symName: __ZSt24__uninitialized_fill_n_aIPSt6vectorISt4pairIiiESaIS2_EEmS4_S4_ET_S6_T0_RKT1_RSaIT2_E, symObjAddr: 0x73F0, symBinAddr: 0x100007B30, symSize: 0x30 }
  - { offset: 0x2FFEB, size: 0x8, addend: 0x0, symName: __ZNSt6vectorIS_ISt4pairIiiESaIS1_EESaIS3_EE3endEv, symObjAddr: 0x73C0, symBinAddr: 0x100007B00, symSize: 0x30 }
  - { offset: 0x3003F, size: 0x8, addend: 0x0, symName: __ZNSt6vectorIS_ISt4pairIiiESaIS1_EESaIS3_EE5beginEv, symObjAddr: 0x7394, symBinAddr: 0x100007AD4, symSize: 0x2C }
  - { offset: 0x30093, size: 0x8, addend: 0x0, symName: __ZNSt12_Vector_baseISt6vectorISt4pairIiiESaIS2_EESaIS4_EE17_Vector_impl_data12_M_swap_dataERS7_, symObjAddr: 0x7348, symBinAddr: 0x100007A88, symSize: 0x4C }
  - { offset: 0x300F7, size: 0x8, addend: 0x0, symName: __ZNSt6vectorIS_ISt4pairIiiESaIS1_EESaIS3_EED1Ev, symObjAddr: 0x72EC, symBinAddr: 0x100007A2C, symSize: 0x5C }
  - { offset: 0x30197, size: 0x8, addend: 0x0, symName: __ZNSt6vectorIS_ISt4pairIiiESaIS1_EESaIS3_EEC1EmRKS3_RKS4_, symObjAddr: 0x727C, symBinAddr: 0x1000079BC, symSize: 0x70 }
  - { offset: 0x301D8, size: 0x8, addend: 0x0, symName: __ZNSt12_Vector_baseISt6vectorISt4pairIiiESaIS2_EESaIS4_EE19_M_get_Tp_allocatorEv, symObjAddr: 0x7268, symBinAddr: 0x1000079A8, symSize: 0x14 }
  - { offset: 0x30202, size: 0x8, addend: 0x0, symName: __ZNKSt6vectorIS_ISt4pairIiiESaIS1_EESaIS3_EE8capacityEv, symObjAddr: 0x721C, symBinAddr: 0x10000795C, symSize: 0x4C }
  - { offset: 0x30286, size: 0x8, addend: 0x0, symName: __ZSt24__uninitialized_fill_n_aIPNSt7__cxx1112basic_stringIcSt11char_traitsIcESaIcEEEmS5_S5_ET_S7_T0_RKT1_RSaIT2_E, symObjAddr: 0x71EC, symBinAddr: 0x10000792C, symSize: 0x30 }
  - { offset: 0x30347, size: 0x8, addend: 0x0, symName: __ZNSt6vectorINSt7__cxx1112basic_stringIcSt11char_traitsIcESaIcEEESaIS5_EE3endEv, symObjAddr: 0x71BC, symBinAddr: 0x1000078FC, symSize: 0x30 }
  - { offset: 0x3039B, size: 0x8, addend: 0x0, symName: __ZNSt6vectorINSt7__cxx1112basic_stringIcSt11char_traitsIcESaIcEEESaIS5_EE5beginEv, symObjAddr: 0x7190, symBinAddr: 0x1000078D0, symSize: 0x2C }
  - { offset: 0x303EF, size: 0x8, addend: 0x0, symName: __ZNSt12_Vector_baseINSt7__cxx1112basic_stringIcSt11char_traitsIcESaIcEEESaIS5_EE17_Vector_impl_data12_M_swap_dataERS8_, symObjAddr: 0x7144, symBinAddr: 0x100007884, symSize: 0x4C }
  - { offset: 0x30453, size: 0x8, addend: 0x0, symName: __ZNSt6vectorINSt7__cxx1112basic_stringIcSt11char_traitsIcESaIcEEESaIS5_EED1Ev, symObjAddr: 0x70E8, symBinAddr: 0x100007828, symSize: 0x5C }
  - { offset: 0x304F3, size: 0x8, addend: 0x0, symName: __ZNSt6vectorINSt7__cxx1112basic_stringIcSt11char_traitsIcESaIcEEESaIS5_EEC1EmRKS5_RKS6_, symObjAddr: 0x7078, symBinAddr: 0x1000077B8, symSize: 0x70 }
  - { offset: 0x30534, size: 0x8, addend: 0x0, symName: __ZNSt12_Vector_baseINSt7__cxx1112basic_stringIcSt11char_traitsIcESaIcEEESaIS5_EE19_M_get_Tp_allocatorEv, symObjAddr: 0x7064, symBinAddr: 0x1000077A4, symSize: 0x14 }
  - { offset: 0x3055E, size: 0x8, addend: 0x0, symName: __ZNKSt6vectorINSt7__cxx1112basic_stringIcSt11char_traitsIcESaIcEEESaIS5_EE8capacityEv, symObjAddr: 0x7024, symBinAddr: 0x100007764, symSize: 0x40 }
  - { offset: 0x30595, size: 0x8, addend: 0x0, symName: __ZNSt7__cxx1112basic_stringIcSt11char_traitsIcESaIcEE9_S_assignEPcmc, symObjAddr: 0x6FCC, symBinAddr: 0x10000770C, symSize: 0x58 }
  - { offset: 0x30600, size: 0x8, addend: 0x0, symName: __ZNSt12_Vector_baseIiSaIiEE17_M_create_storageEm, symObjAddr: 0x6F6C, symBinAddr: 0x1000076AC, symSize: 0x60 }
  - { offset: 0x30662, size: 0x8, addend: 0x0, symName: __ZNSt12_Vector_baseIiSaIiEE12_Vector_implC1ERKS0_, symObjAddr: 0x6F20, symBinAddr: 0x100007660, symSize: 0x4C }
  - { offset: 0x306E5, size: 0x8, addend: 0x0, symName: __ZNSt6vectorIiSaIiEE11_S_max_sizeERKS0_, symObjAddr: 0x6ECC, symBinAddr: 0x10000760C, symSize: 0x54 }
  - { offset: 0x307C8, size: 0x8, addend: 0x0, symName: __ZNSt23_Rb_tree_const_iteratorI8FractionEC1ERKSt17_Rb_tree_iteratorIS0_E, symObjAddr: 0x6EA4, symBinAddr: 0x1000075E4, symSize: 0x28 }
  - { offset: 0x30867, size: 0x8, addend: 0x0, symName: __ZNSt17_Rb_tree_iteratorI8FractionEC1EPSt18_Rb_tree_node_base, symObjAddr: 0x6E80, symBinAddr: 0x1000075C0, symSize: 0x24 }
  - { offset: 0x308E4, size: 0x8, addend: 0x0, symName: __ZNSt4pairISt17_Rb_tree_iteratorI8FractionEbEC1IS2_bLb1EEEOT_OT0_, symObjAddr: 0x6E34, symBinAddr: 0x100007574, symSize: 0x4C }
  - { offset: 0x3097C, size: 0x8, addend: 0x0, symName: __ZNSt8_Rb_treeI8FractionS0_St9_IdentityIS0_ESt4lessIS0_ESaIS0_EE10_M_insert_IRKS0_NS6_11_Alloc_nodeEEESt17_Rb_tree_iteratorIS0_EPSt18_Rb_tree_node_baseSE_OT_RT0_, symObjAddr: 0x6D3C, symBinAddr: 0x10000747C, symSize: 0xF8 }
  - { offset: 0x30A91, size: 0x8, addend: 0x0, symName: __ZNSt8_Rb_treeI8FractionS0_St9_IdentityIS0_ESt4lessIS0_ESaIS0_EE11_Alloc_nodeC1ERS6_, symObjAddr: 0x6D18, symBinAddr: 0x100007458, symSize: 0x24 }
  - { offset: 0x30AC0, size: 0x8, addend: 0x0, symName: __ZNKSt9_IdentityI8FractionEclERKS0_, symObjAddr: 0x6D00, symBinAddr: 0x100007440, symSize: 0x18 }
  - { offset: 0x30AFB, size: 0x8, addend: 0x0, symName: __ZNSt8_Rb_treeI8FractionS0_St9_IdentityIS0_ESt4lessIS0_ESaIS0_EE24_M_get_insert_unique_posERKS0_, symObjAddr: 0x6BA8, symBinAddr: 0x1000072E8, symSize: 0x158 }
  - { offset: 0x30B7F, size: 0x8, addend: 0x0, symName: __ZNSt13_Rb_tree_nodeI8FractionE11_M_node_ptrEv, symObjAddr: 0x6B94, symBinAddr: 0x1000072D4, symSize: 0x14 }
  - { offset: 0x30BA9, size: 0x8, addend: 0x0, symName: __ZNSt8_Rb_treeI8FractionS0_St9_IdentityIS0_ESt4lessIS0_ESaIS0_EE12_M_drop_nodeEPSt13_Rb_tree_nodeIS0_E, symObjAddr: 0x6B60, symBinAddr: 0x1000072A0, symSize: 0x34 }
  - { offset: 0x30BE0, size: 0x8, addend: 0x0, symName: __ZNSt8_Rb_treeI8FractionS0_St9_IdentityIS0_ESt4lessIS0_ESaIS0_EE7_S_leftEPSt13_Rb_tree_nodeIS0_E, symObjAddr: 0x6B28, symBinAddr: 0x100007268, symSize: 0x38 }
  - { offset: 0x30C0A, size: 0x8, addend: 0x0, symName: __ZNSt8_Rb_treeI8FractionS0_St9_IdentityIS0_ESt4lessIS0_ESaIS0_EE8_S_rightEPSt13_Rb_tree_nodeIS0_E, symObjAddr: 0x6AF0, symBinAddr: 0x100007230, symSize: 0x38 }
  - { offset: 0x30C69, size: 0x8, addend: 0x0, symName: __ZNSt6vectorISt4pairIiiESaIS1_EE4backEv, symObjAddr: 0x6A54, symBinAddr: 0x100007194, symSize: 0x9C }
  - { offset: 0x30D20, size: 0x8, addend: 0x0, symName: __ZNSt6vectorISt4pairIiiESaIS1_EE17_M_realloc_appendIJS1_EEEvDpOT_, symObjAddr: 0x6860, symBinAddr: 0x100006FA0, symSize: 0x1F4 }
  - { offset: 0x30FD2, size: 0x8, addend: 0x0, symName: __ZSt8_DestroyIPSt4pairIiiEEvT_S3_, symObjAddr: 0x6848, symBinAddr: 0x100006F88, symSize: 0x18 }
  - { offset: 0x31110, size: 0x8, addend: 0x0, symName: __ZSt34__uninitialized_move_if_noexcept_aIPiS0_SaIiEET0_T_S3_S2_RT1_, symObjAddr: 0x67F8, symBinAddr: 0x100006F38, symSize: 0x50 }
  - { offset: 0x31188, size: 0x8, addend: 0x0, symName: __ZSt24__uninitialized_fill_n_aIPimiiET_S1_T0_RKT1_RSaIT2_E, symObjAddr: 0x67C8, symBinAddr: 0x100006F08, symSize: 0x30 }
  - { offset: 0x31289, size: 0x8, addend: 0x0, symName: __ZSt22__uninitialized_move_aIPiS0_SaIiEET0_T_S3_S2_RT1_, symObjAddr: 0x6778, symBinAddr: 0x100006EB8, symSize: 0x50 }
  - { offset: 0x31341, size: 0x8, addend: 0x0, symName: __ZNSt6vectorIiSaIiEE16_Temporary_value6_M_valEv, symObjAddr: 0x6760, symBinAddr: 0x100006EA0, symSize: 0x18 }
  - { offset: 0x31385, size: 0x8, addend: 0x0, symName: __ZNSt6vectorIiSaIiEE16_Temporary_valueD1Ev, symObjAddr: 0x6700, symBinAddr: 0x100006E40, symSize: 0x60 }
  - { offset: 0x31448, size: 0x8, addend: 0x0, symName: __ZNSt6vectorIiSaIiEE16_Temporary_valueC1IJRKiEEEPS1_DpOT_, symObjAddr: 0x662C, symBinAddr: 0x100006D6C, symSize: 0xD4 }
  - { offset: 0x3156D, size: 0x8, addend: 0x0, symName: __ZNSt6vectorIiSaIiEE11_S_relocateEPiS2_S2_RS0_, symObjAddr: 0x65F8, symBinAddr: 0x100006D38, symSize: 0x34 }
  - { offset: 0x315E8, size: 0x8, addend: 0x0, symName: __ZNSt6vectorIiSaIiEE12_Guard_allocD1Ev, symObjAddr: 0x65AC, symBinAddr: 0x100006CEC, symSize: 0x4C }
  - { offset: 0x31652, size: 0x8, addend: 0x0, symName: __ZNSt6vectorIiSaIiEE12_Guard_allocC1EPimRSt12_Vector_baseIiS0_E, symObjAddr: 0x6568, symBinAddr: 0x100006CA8, symSize: 0x44 }
  - { offset: 0x31693, size: 0x8, addend: 0x0, symName: __ZNSt12_Vector_baseIiSaIiEE11_M_allocateEm, symObjAddr: 0x6518, symBinAddr: 0x100006C58, symSize: 0x50 }
  - { offset: 0x316FB, size: 0x8, addend: 0x0, symName: __ZNKSt6vectorIiSaIiEE12_M_check_lenEmPKc, symObjAddr: 0x6448, symBinAddr: 0x100006B88, symSize: 0xD0 }
  - { offset: 0x31754, size: 0x8, addend: 0x0, symName: __ZSt27__uninitialized_default_n_aIPimiET_S1_T0_RSaIT1_E, symObjAddr: 0x6420, symBinAddr: 0x100006B60, symSize: 0x28 }
  - { offset: 0x317B7, size: 0x8, addend: 0x0, symName: __ZNKSt6vectorIiSaIiEE8max_sizeEv, symObjAddr: 0x6400, symBinAddr: 0x100006B40, symSize: 0x20 }
  - { offset: 0x317DD, size: 0x8, addend: 0x0, symName: __ZSt8_DestroyIPiEvT_S1_, symObjAddr: 0x63E8, symBinAddr: 0x100006B28, symSize: 0x18 }
  - { offset: 0x31855, size: 0x8, addend: 0x0, symName: __ZNKSt7__cxx1112basic_stringIcSt11char_traitsIcESaIcEE8_M_limitEmm, symObjAddr: 0x637C, symBinAddr: 0x100006ABC, symSize: 0x6C }
  - { offset: 0x31914, size: 0x8, addend: 0x0, symName: __ZSt11__bit_widthImEiT_, symObjAddr: 0x634C, symBinAddr: 0x100006A8C, symSize: 0x30 }
  - { offset: 0x3195C, size: 0x8, addend: 0x0, symName: __ZNSt7__cxx1112basic_stringIcSt11char_traitsIcESaIcEE7replaceEmmPKcm, symObjAddr: 0x62E0, symBinAddr: 0x100006A20, symSize: 0x6C }
  - { offset: 0x319C6, size: 0x8, addend: 0x0, symName: __ZNSt7__cxx1112basic_stringIcSt11char_traitsIcESaIcEE13_S_copy_charsIPKcEEvPcT_S9_, symObjAddr: 0x6298, symBinAddr: 0x1000069D8, symSize: 0x48 }
  - { offset: 0x31A43, size: 0x8, addend: 0x0, symName: __ZNKSt7__cxx1112basic_stringIcSt11char_traitsIcESaIcEE8max_sizeEv, symObjAddr: 0x623C, symBinAddr: 0x10000697C, symSize: 0x5C }
  - { offset: 0x31B25, size: 0x8, addend: 0x0, symName: __ZNKSt7__cxx1112basic_stringIcSt11char_traitsIcESaIcEE13_M_local_dataEv, symObjAddr: 0x621C, symBinAddr: 0x10000695C, symSize: 0x20 }
  - { offset: 0x31B52, size: 0x8, addend: 0x0, symName: __ZNSt7__cxx1112basic_stringIcSt11char_traitsIcESaIcEE9_M_createERmm, symObjAddr: 0x6128, symBinAddr: 0x100006868, symSize: 0xF4 }
  - { offset: 0x31BBB, size: 0x8, addend: 0x0, symName: __ZNSt19__ptr_traits_ptr_toIPccLb0EE10pointer_toERc, symObjAddr: 0x6100, symBinAddr: 0x100006840, symSize: 0x28 }
  - { offset: 0x31C2E, size: 0x8, addend: 0x0, symName: __ZNSt6vectorINSt7__cxx1112basic_stringIcSt11char_traitsIcESaIcEEESaIS5_EE15_M_erase_at_endEPS5_, symObjAddr: 0x6078, symBinAddr: 0x1000067B8, symSize: 0x88 }
  - { offset: 0x31CC3, size: 0x8, addend: 0x0, symName: __ZNSt6vectorINSt7__cxx1112basic_stringIcSt11char_traitsIcESaIcEEESaIS5_EE17_M_default_appendEm, symObjAddr: 0x5E58, symBinAddr: 0x100006598, symSize: 0x220 }
  - { offset: 0x31D8D, size: 0x8, addend: 0x0, symName: __ZNSt7__cxx1112basic_stringIcSt11char_traitsIcESaIcEE6appendERKS4_, symObjAddr: 0x5E14, symBinAddr: 0x100006554, symSize: 0x44 }
  - { offset: 0x31DC8, size: 0x8, addend: 0x0, symName: __ZNKSt7__cxx1112basic_stringIcSt11char_traitsIcESaIcEE8capacityEv, symObjAddr: 0x5D90, symBinAddr: 0x1000064D0, symSize: 0x84 }
  - { offset: 0x31E03, size: 0x8, addend: 0x0, symName: __ZNSt7__cxx1112basic_stringIcSt11char_traitsIcESaIcEE6appendEPKc, symObjAddr: 0x5D44, symBinAddr: 0x100006484, symSize: 0x4C }
  - { offset: 0x31E6F, size: 0x8, addend: 0x0, symName: __ZSt6__sortISt16reverse_iteratorIN9__gnu_cxx17__normal_iteratorIP8FractionSt6vectorIS3_SaIS3_EEEEENS1_5__ops15_Iter_less_iterEEvT_SC_T0_, symObjAddr: 0x5CA0, symBinAddr: 0x1000063E0, symSize: 0xA4 }
  - { offset: 0x31ECF, size: 0x8, addend: 0x0, symName: __ZStmiIN9__gnu_cxx17__normal_iteratorIP8FractionSt6vectorIS2_SaIS2_EEEES7_EDTmicldtfp0_4baseEcldtfp_4baseEERKSt16reverse_iteratorIT_ERKS9_IT0_E, symObjAddr: 0x5C48, symBinAddr: 0x100006388, symSize: 0x58 }
  - { offset: 0x31F8F, size: 0x8, addend: 0x0, symName: __ZNKSt16reverse_iteratorIN9__gnu_cxx17__normal_iteratorIP8FractionSt6vectorIS2_SaIS2_EEEEE4baseEv, symObjAddr: 0x5C30, symBinAddr: 0x100006370, symSize: 0x18 }
  - { offset: 0x31FB5, size: 0x8, addend: 0x0, symName: __ZSteqIN9__gnu_cxx17__normal_iteratorIP8FractionSt6vectorIS2_SaIS2_EEEEEbRKSt16reverse_iteratorIT_ESC_, symObjAddr: 0x5BD4, symBinAddr: 0x100006314, symSize: 0x5C }
  - { offset: 0x32068, size: 0x8, addend: 0x0, symName: __ZStneIN9__gnu_cxx17__normal_iteratorIP8FractionSt6vectorIS2_SaIS2_EEEEEbRKSt16reverse_iteratorIT_ESC_, symObjAddr: 0x5BA8, symBinAddr: 0x1000062E8, symSize: 0x2C }
  - { offset: 0x320D7, size: 0x8, addend: 0x0, symName: __ZNSt16reverse_iteratorIN9__gnu_cxx17__normal_iteratorIP8FractionSt6vectorIS2_SaIS2_EEEEEC1ERKS8_, symObjAddr: 0x5B80, symBinAddr: 0x1000062C0, symSize: 0x28 }
  - { offset: 0x3212D, size: 0x8, addend: 0x0, symName: __ZNSt16reverse_iteratorIN9__gnu_cxx17__normal_iteratorIP8FractionSt6vectorIS2_SaIS2_EEEEEC1ES7_, symObjAddr: 0x5B5C, symBinAddr: 0x10000629C, symSize: 0x24 }
  - { offset: 0x32197, size: 0x8, addend: 0x0, symName: __ZNSt12_Vector_baseI8FractionSaIS0_EE19_M_get_Tp_allocatorEv, symObjAddr: 0x5B48, symBinAddr: 0x100006288, symSize: 0x14 }
  - { offset: 0x321C1, size: 0x8, addend: 0x0, symName: __ZNSt6vectorI8FractionSaIS0_EE19_M_range_initializeISt23_Rb_tree_const_iteratorIS0_EEEvT_S6_St20forward_iterator_tag, symObjAddr: 0x5AE8, symBinAddr: 0x100006228, symSize: 0x60 }
  - { offset: 0x3229C, size: 0x8, addend: 0x0, symName: __ZNSt12_Vector_baseI8FractionSaIS0_EED2Ev, symObjAddr: 0x5A98, symBinAddr: 0x1000061D8, symSize: 0x50 }
  - { offset: 0x322EA, size: 0x8, addend: 0x0, symName: __ZNSt12_Vector_baseI8FractionSaIS0_EEC2ERKS1_, symObjAddr: 0x5A70, symBinAddr: 0x1000061B0, symSize: 0x28 }
  - { offset: 0x32336, size: 0x8, addend: 0x0, symName: __ZNSt12_Vector_baseI8FractionSaIS0_EE12_Vector_implD1Ev, symObjAddr: 0x5A44, symBinAddr: 0x100006184, symSize: 0x2C }
  - { offset: 0x32399, size: 0x8, addend: 0x0, symName: __ZNSt15__new_allocatorI8FractionED2Ev, symObjAddr: 0x5A30, symBinAddr: 0x100006170, symSize: 0x14 }
  - { offset: 0x323D5, size: 0x8, addend: 0x0, symName: __ZNKSt8_Rb_treeI8FractionS0_St9_IdentityIS0_ESt4lessIS0_ESaIS0_EE3endEv, symObjAddr: 0x5A04, symBinAddr: 0x100006144, symSize: 0x2C }
  - { offset: 0x323FF, size: 0x8, addend: 0x0, symName: __ZNKSt8_Rb_treeI8FractionS0_St9_IdentityIS0_ESt4lessIS0_ESaIS0_EE5beginEv, symObjAddr: 0x59DC, symBinAddr: 0x10000611C, symSize: 0x28 }
  - { offset: 0x32429, size: 0x8, addend: 0x0, symName: __ZNSt6vectorISt4pairIiiESaIS1_EE14_M_fill_assignEmRKS1_, symObjAddr: 0x57B8, symBinAddr: 0x100005EF8, symSize: 0x224 }
  - { offset: 0x326C5, size: 0x8, addend: 0x0, symName: __ZNKSt6vectorISt4pairIiiESaIS1_EE3endEv, symObjAddr: 0x5788, symBinAddr: 0x100005EC8, symSize: 0x30 }
  - { offset: 0x32719, size: 0x8, addend: 0x0, symName: __ZNKSt6vectorISt4pairIiiESaIS1_EE5beginEv, symObjAddr: 0x575C, symBinAddr: 0x100005E9C, symSize: 0x2C }
  - { offset: 0x3276D, size: 0x8, addend: 0x0, symName: __ZNSt6vectorISt4pairIiiESaIS1_EE14_M_move_assignEOS3_St17integral_constantIbLb1EE, symObjAddr: 0x56C8, symBinAddr: 0x100005E08, symSize: 0x94 }
  - { offset: 0x32837, size: 0x8, addend: 0x0, symName: __ZNSt6vectorIS_ISt4pairIiiESaIS1_EESaIS3_EE14_M_fill_assignEmRKS3_, symObjAddr: 0x5484, symBinAddr: 0x100005BC4, symSize: 0x244 }
  - { offset: 0x32A9D, size: 0x8, addend: 0x0, symName: __ZNSt6vectorINSt7__cxx1112basic_stringIcSt11char_traitsIcESaIcEEESaIS5_EE14_M_fill_assignEmRKS5_, symObjAddr: 0x5260, symBinAddr: 0x1000059A0, symSize: 0x224 }
  - { offset: 0x32D07, size: 0x8, addend: 0x0, symName: __ZNSt7__cxx1112basic_stringIcSt11char_traitsIcESaIcEE12_M_constructEmc, symObjAddr: 0x51B0, symBinAddr: 0x1000058F0, symSize: 0xB0 }
  - { offset: 0x32D77, size: 0x8, addend: 0x0, symName: __ZNKSt6vectorISt4pairIiiESaIS1_EE4sizeEv, symObjAddr: 0x5170, symBinAddr: 0x1000058B0, symSize: 0x40 }
  - { offset: 0x32DB2, size: 0x8, addend: 0x0, symName: __ZNKSt6vectorIS_ISt4pairIiiESaIS1_EESaIS3_EE4sizeEv, symObjAddr: 0x5124, symBinAddr: 0x100005864, symSize: 0x4C }
  - { offset: 0x32E10, size: 0x8, addend: 0x0, symName: __ZNSt6vectorIiSaIiEE18_M_fill_initializeEmRKi, symObjAddr: 0x50CC, symBinAddr: 0x10000580C, symSize: 0x58 }
  - { offset: 0x32E92, size: 0x8, addend: 0x0, symName: __ZNSt12_Vector_baseIiSaIiEEC2EmRKS0_, symObjAddr: 0x5078, symBinAddr: 0x1000057B8, symSize: 0x54 }
  - { offset: 0x32EC6, size: 0x8, addend: 0x0, symName: __ZNSt6vectorIiSaIiEE17_S_check_init_lenEmRKS0_, symObjAddr: 0x4FF4, symBinAddr: 0x100005734, symSize: 0x84 }
  - { offset: 0x32FB6, size: 0x8, addend: 0x0, symName: __ZNKSt6vectorINSt7__cxx1112basic_stringIcSt11char_traitsIcESaIcEEESaIS5_EE4sizeEv, symObjAddr: 0x4FB4, symBinAddr: 0x1000056F4, symSize: 0x40 }
  - { offset: 0x33039, size: 0x8, addend: 0x0, symName: __ZNSt4pairISt23_Rb_tree_const_iteratorI8FractionEbEC1IRSt17_Rb_tree_iteratorIS1_ERbLb1EEEOT_OT0_, symObjAddr: 0x4F68, symBinAddr: 0x1000056A8, symSize: 0x4C }
  - { offset: 0x330CB, size: 0x8, addend: 0x0, symName: __ZNSt8_Rb_treeI8FractionS0_St9_IdentityIS0_ESt4lessIS0_ESaIS0_EE16_M_insert_uniqueIRKS0_EESt4pairISt17_Rb_tree_iteratorIS0_EbEOT_, symObjAddr: 0x4EA4, symBinAddr: 0x1000055E4, symSize: 0xC4 }
  - { offset: 0x3316C, size: 0x8, addend: 0x0, symName: __ZNKSt8_Rb_treeI8FractionS0_St9_IdentityIS0_ESt4lessIS0_ESaIS0_EE13_M_begin_nodeEv, symObjAddr: 0x4E68, symBinAddr: 0x1000055A8, symSize: 0x3C }
  - { offset: 0x331A7, size: 0x8, addend: 0x0, symName: __ZNSt8_Rb_treeI8FractionS0_St9_IdentityIS0_ESt4lessIS0_ESaIS0_EE8_M_eraseEPSt13_Rb_tree_nodeIS0_E, symObjAddr: 0x4E04, symBinAddr: 0x100005544, symSize: 0x64 }
  - { offset: 0x33220, size: 0x8, addend: 0x0, symName: __ZNSt15__new_allocatorISt13_Rb_tree_nodeI8FractionEED2Ev, symObjAddr: 0x4DF0, symBinAddr: 0x100005530, symSize: 0x14 }
  - { offset: 0x33260, size: 0x8, addend: 0x0, symName: __ZNSt20_Rb_tree_key_compareISt4lessI8FractionEEC2Ev, symObjAddr: 0x4DDC, symBinAddr: 0x10000551C, symSize: 0x14 }
  - { offset: 0x332BF, size: 0x8, addend: 0x0, symName: __ZNSt6vectorISt4pairIiiESaIS1_EE12emplace_backIJS1_EEERS1_DpOT_, symObjAddr: 0x4CE4, symBinAddr: 0x100005424, symSize: 0xF8 }
  - { offset: 0x33462, size: 0x8, addend: 0x0, symName: __ZNSt12_Vector_baseISt4pairIiiESaIS1_EE19_M_get_Tp_allocatorEv, symObjAddr: 0x4CD0, symBinAddr: 0x100005410, symSize: 0x14 }
  - { offset: 0x3348C, size: 0x8, addend: 0x0, symName: __ZNSt12_Vector_baseISt4pairIiiESaIS1_EE13_M_deallocateEPS1_m, symObjAddr: 0x4C78, symBinAddr: 0x1000053B8, symSize: 0x58 }
  - { offset: 0x33528, size: 0x8, addend: 0x0, symName: __ZNSt15__new_allocatorISt4pairIiiEED2Ev, symObjAddr: 0x4C64, symBinAddr: 0x1000053A4, symSize: 0x14 }
  - { offset: 0x33568, size: 0x8, addend: 0x0, symName: __ZNSt12_Vector_baseISt4pairIiiESaIS1_EE17_Vector_impl_dataC1Ev, symObjAddr: 0x4C38, symBinAddr: 0x100005378, symSize: 0x2C }
  - { offset: 0x33592, size: 0x8, addend: 0x0, symName: __ZNSt12_Vector_baseISt4pairIiiESaIS1_EE17_Vector_impl_dataC2Ev, symObjAddr: 0x4C0C, symBinAddr: 0x10000534C, symSize: 0x2C }
  - { offset: 0x335CE, size: 0x8, addend: 0x0, symName: __ZNSt12_Vector_baseISt6vectorISt4pairIiiESaIS2_EESaIS4_EE13_M_deallocateEPS4_m, symObjAddr: 0x4BB4, symBinAddr: 0x1000052F4, symSize: 0x58 }
  - { offset: 0x3366A, size: 0x8, addend: 0x0, symName: __ZNSt15__new_allocatorISt6vectorISt4pairIiiESaIS2_EEED2Ev, symObjAddr: 0x4BA0, symBinAddr: 0x1000052E0, symSize: 0x14 }
  - { offset: 0x336AA, size: 0x8, addend: 0x0, symName: __ZNSt12_Vector_baseISt6vectorISt4pairIiiESaIS2_EESaIS4_EE17_Vector_impl_dataC1Ev, symObjAddr: 0x4B74, symBinAddr: 0x1000052B4, symSize: 0x2C }
  - { offset: 0x336D4, size: 0x8, addend: 0x0, symName: __ZNSt12_Vector_baseISt6vectorISt4pairIiiESaIS2_EESaIS4_EE17_Vector_impl_dataC2Ev, symObjAddr: 0x4B48, symBinAddr: 0x100005288, symSize: 0x2C }
  - { offset: 0x33710, size: 0x8, addend: 0x0, symName: __ZNSt12_Vector_baseINSt7__cxx1112basic_stringIcSt11char_traitsIcESaIcEEESaIS5_EE13_M_deallocateEPS5_m, symObjAddr: 0x4AF0, symBinAddr: 0x100005230, symSize: 0x58 }
  - { offset: 0x337AC, size: 0x8, addend: 0x0, symName: __ZNSt15__new_allocatorINSt7__cxx1112basic_stringIcSt11char_traitsIcESaIcEEEED2Ev, symObjAddr: 0x4ADC, symBinAddr: 0x10000521C, symSize: 0x14 }
  - { offset: 0x337EC, size: 0x8, addend: 0x0, symName: __ZNSt12_Vector_baseINSt7__cxx1112basic_stringIcSt11char_traitsIcESaIcEEESaIS5_EE17_Vector_impl_dataC1Ev, symObjAddr: 0x4AB0, symBinAddr: 0x1000051F0, symSize: 0x2C }
  - { offset: 0x33816, size: 0x8, addend: 0x0, symName: __ZNSt12_Vector_baseINSt7__cxx1112basic_stringIcSt11char_traitsIcESaIcEEESaIS5_EE17_Vector_impl_dataC2Ev, symObjAddr: 0x4A84, symBinAddr: 0x1000051C4, symSize: 0x2C }
  - { offset: 0x33852, size: 0x8, addend: 0x0, symName: __ZNSt6vectorIiSaIiEE3endEv, symObjAddr: 0x4A54, symBinAddr: 0x100005194, symSize: 0x30 }
  - { offset: 0x338A6, size: 0x8, addend: 0x0, symName: __ZNSt6vectorIiSaIiEE14_M_fill_insertEN9__gnu_cxx17__normal_iteratorIPiS1_EEmRKi, symObjAddr: 0x452C, symBinAddr: 0x100004C6C, symSize: 0x528 }
  - { offset: 0x33DC9, size: 0x8, addend: 0x0, symName: __ZNSt6vectorIiSaIiEE15_M_erase_at_endEPi, symObjAddr: 0x44A4, symBinAddr: 0x100004BE4, symSize: 0x88 }
  - { offset: 0x33E5E, size: 0x8, addend: 0x0, symName: __ZNSt6vectorIiSaIiEE17_M_default_appendEm, symObjAddr: 0x4284, symBinAddr: 0x1000049C4, symSize: 0x220 }
  - { offset: 0x33F63, size: 0x8, addend: 0x0, symName: __ZNSt12_Vector_baseIiSaIiEE19_M_get_Tp_allocatorEv, symObjAddr: 0x4270, symBinAddr: 0x1000049B0, symSize: 0x14 }
  - { offset: 0x33F8D, size: 0x8, addend: 0x0, symName: __ZNSt12_Vector_baseIiSaIiEE13_M_deallocateEPim, symObjAddr: 0x4218, symBinAddr: 0x100004958, symSize: 0x58 }
  - { offset: 0x34029, size: 0x8, addend: 0x0, symName: __ZNSt15__new_allocatorIiED2Ev, symObjAddr: 0x4204, symBinAddr: 0x100004944, symSize: 0x14 }
  - { offset: 0x34069, size: 0x8, addend: 0x0, symName: __ZNSt12_Vector_baseIiSaIiEE17_Vector_impl_dataC2Ev, symObjAddr: 0x41D8, symBinAddr: 0x100004918, symSize: 0x2C }
  - { offset: 0x3408B, size: 0x8, addend: 0x0, symName: __ZNSt8__detail5__gcdIjEET_S1_S1_, symObjAddr: 0x40CC, symBinAddr: 0x10000480C, symSize: 0x10C }
  - { offset: 0x34124, size: 0x8, addend: 0x0, symName: __ZNKSt7__cxx1112basic_stringIcSt11char_traitsIcESaIcEE8_M_checkEmPKc, symObjAddr: 0x4054, symBinAddr: 0x100004794, symSize: 0x78 }
  - { offset: 0x34174, size: 0x8, addend: 0x0, symName: __ZNSt7__cxx1112basic_stringIcSt11char_traitsIcESaIcEE9_M_assignERKS4_, symObjAddr: 0x3F60, symBinAddr: 0x1000046A0, symSize: 0xF4 }
  - { offset: 0x34239, size: 0x8, addend: 0x0, symName: __ZNSt7__cxx1112basic_stringIcSt11char_traitsIcESaIcEE7_S_copyEPcPKcm, symObjAddr: 0x3F14, symBinAddr: 0x100004654, symSize: 0x4C }
  - { offset: 0x342A7, size: 0x8, addend: 0x0, symName: __ZNSt7__cxx1112basic_stringIcSt11char_traitsIcESaIcEE10_M_destroyEm, symObjAddr: 0x3EB0, symBinAddr: 0x1000045F0, symSize: 0x64 }
  - { offset: 0x34318, size: 0x8, addend: 0x0, symName: __ZNSt7__cxx1112basic_stringIcSt11char_traitsIcESaIcEE12_M_constructILb1EEEvPKcm, symObjAddr: 0x3E10, symBinAddr: 0x100004550, symSize: 0xA0 }
  - { offset: 0x343A7, size: 0x8, addend: 0x0, symName: __ZNKSt7__cxx1112basic_stringIcSt11char_traitsIcESaIcEE16_M_get_allocatorEv, symObjAddr: 0x3DFC, symBinAddr: 0x10000453C, symSize: 0x14 }
  - { offset: 0x343F5, size: 0x8, addend: 0x0, symName: __ZNSt7__cxx1112basic_stringIcSt11char_traitsIcESaIcEE6insertEmRKS4_, symObjAddr: 0x3DAC, symBinAddr: 0x1000044EC, symSize: 0x50 }
  - { offset: 0x34441, size: 0x8, addend: 0x0, symName: __ZNSt7__cxx1112basic_stringIcSt11char_traitsIcESaIcEE12_M_constructIPKcEEvT_S8_St20forward_iterator_tag, symObjAddr: 0x3CCC, symBinAddr: 0x10000440C, symSize: 0xE0 }
  - { offset: 0x3453F, size: 0x8, addend: 0x0, symName: __ZZNSt7__cxx1112basic_stringIcSt11char_traitsIcESaIcEE12_M_constructIPKcEEvT_S8_St20forward_iterator_tagEN6_GuardC1EPS4_, symObjAddr: 0x3C74, symBinAddr: 0x1000043B4, symSize: 0x24 }
  - { offset: 0x34572, size: 0x8, addend: 0x0, symName: __ZZNSt7__cxx1112basic_stringIcSt11char_traitsIcESaIcEE12_M_constructIPKcEEvT_S8_St20forward_iterator_tagEN6_GuardD1Ev, symObjAddr: 0x3C98, symBinAddr: 0x1000043D8, symSize: 0x34 }
  - { offset: 0x34682, size: 0x8, addend: 0x0, symName: __ZNSt7__cxx1112basic_stringIcSt11char_traitsIcESaIcEE12_Alloc_hiderC1EPcRKS3_, symObjAddr: 0x3C24, symBinAddr: 0x100004364, symSize: 0x50 }
  - { offset: 0x3472C, size: 0x8, addend: 0x0, symName: __ZNSt15__new_allocatorIcED2Ev, symObjAddr: 0x3C10, symBinAddr: 0x100004350, symSize: 0x14 }
  - { offset: 0x34768, size: 0x8, addend: 0x0, symName: __ZNKSt7__cxx1112basic_stringIcSt11char_traitsIcESaIcEE4sizeEv, symObjAddr: 0x3BC0, symBinAddr: 0x100004300, symSize: 0x50 }
  - { offset: 0x347CF, size: 0x8, addend: 0x0, symName: __ZNSt7__cxx1112basic_stringIcSt11char_traitsIcESaIcEE9_M_lengthEm, symObjAddr: 0x3B9C, symBinAddr: 0x1000042DC, symSize: 0x24 }
  - { offset: 0x34809, size: 0x8, addend: 0x0, symName: __ZNSt7__cxx1112basic_stringIcSt11char_traitsIcESaIcEE11_M_capacityEm, symObjAddr: 0x3B78, symBinAddr: 0x1000042B8, symSize: 0x24 }
  - { offset: 0x34844, size: 0x8, addend: 0x0, symName: __ZNSt7__cxx1112basic_stringIcSt11char_traitsIcESaIcEE7_M_dataEPc, symObjAddr: 0x3B54, symBinAddr: 0x100004294, symSize: 0x24 }
  - { offset: 0x3487E, size: 0x8, addend: 0x0, symName: __ZNKSt7__cxx1112basic_stringIcSt11char_traitsIcESaIcEE11_M_is_localEv, symObjAddr: 0x3AEC, symBinAddr: 0x10000422C, symSize: 0x68 }
  - { offset: 0x348CC, size: 0x8, addend: 0x0, symName: __ZNSt7__cxx1112basic_stringIcSt11char_traitsIcESaIcEE16_M_get_allocatorEv, symObjAddr: 0x3AD8, symBinAddr: 0x100004218, symSize: 0x14 }
  - { offset: 0x3491E, size: 0x8, addend: 0x0, symName: __ZNSt7__cxx1112basic_stringIcSt11char_traitsIcESaIcEE7reserveEm, symObjAddr: 0x3A30, symBinAddr: 0x100004170, symSize: 0xA8 }
  - { offset: 0x3497B, size: 0x8, addend: 0x0, symName: __ZNSt7__cxx1112basic_stringIcSt11char_traitsIcESaIcEE10_M_disposeEv, symObjAddr: 0x39E8, symBinAddr: 0x100004128, symSize: 0x48 }
  - { offset: 0x349A5, size: 0x8, addend: 0x0, symName: __ZNSt7__cxx1112basic_stringIcSt11char_traitsIcESaIcEE13_M_set_lengthEm, symObjAddr: 0x39A0, symBinAddr: 0x1000040E0, symSize: 0x48 }
  - { offset: 0x34A2A, size: 0x8, addend: 0x0, symName: __ZNSt7__cxx1112basic_stringIcSt11char_traitsIcESaIcEE12_Alloc_hiderC1EPcOS3_, symObjAddr: 0x3948, symBinAddr: 0x100004088, symSize: 0x58 }
  - { offset: 0x34ADE, size: 0x8, addend: 0x0, symName: __ZNSt7__cxx1112basic_stringIcSt11char_traitsIcESaIcEE13_M_local_dataEv, symObjAddr: 0x3928, symBinAddr: 0x100004068, symSize: 0x20 }
  - { offset: 0x34B08, size: 0x8, addend: 0x0, symName: __ZNKSt7__cxx1112basic_stringIcSt11char_traitsIcESaIcEE7_M_dataEv, symObjAddr: 0x3910, symBinAddr: 0x100004050, symSize: 0x18 }
  - { offset: 0x34B2E, size: 0x8, addend: 0x0, symName: __ZN9__gnu_cxx11char_traitsIcE2eqERKcS3_, symObjAddr: 0x38E0, symBinAddr: 0x100004020, symSize: 0x30 }
  - { offset: 0x34B6B, size: 0x8, addend: 0x0, symName: __ZNSt6vectorINSt7__cxx1112basic_stringIcSt11char_traitsIcESaIcEEESaIS5_EE6resizeEm, symObjAddr: 0x3830, symBinAddr: 0x100003F70, symSize: 0xB0 }
  - { offset: 0x34BA2, size: 0x8, addend: 0x0, symName: __ZStplIcSt11char_traitsIcESaIcEENSt7__cxx1112basic_stringIT_T0_T1_EEOS8_S9_, symObjAddr: 0x3740, symBinAddr: 0x100003E80, symSize: 0xF0 }
  - { offset: 0x34C75, size: 0x8, addend: 0x0, symName: __ZStplIcSt11char_traitsIcESaIcEENSt7__cxx1112basic_stringIT_T0_T1_EEOS8_PKS5_, symObjAddr: 0x36F8, symBinAddr: 0x100003E38, symSize: 0x48 }
  - { offset: 0x34D09, size: 0x8, addend: 0x0, symName: __ZNSt6vectorI8FractionSaIS0_EE3endEv, symObjAddr: 0x36C8, symBinAddr: 0x100003E08, symSize: 0x30 }
  - { offset: 0x34D5D, size: 0x8, addend: 0x0, symName: __ZNSt6vectorI8FractionSaIS0_EE5beginEv, symObjAddr: 0x369C, symBinAddr: 0x100003DDC, symSize: 0x2C }
  - { offset: 0x34DAD, size: 0x8, addend: 0x0, symName: __ZSt4sortISt16reverse_iteratorIN9__gnu_cxx17__normal_iteratorIP8FractionSt6vectorIS3_SaIS3_EEEEEEvT_SA_, symObjAddr: 0x364C, symBinAddr: 0x100003D8C, symSize: 0x50 }
  - { offset: 0x34DF7, size: 0x8, addend: 0x0, symName: __ZNSt6vectorI8FractionSaIS0_EE4rendEv, symObjAddr: 0x3614, symBinAddr: 0x100003D54, symSize: 0x38 }
  - { offset: 0x34E21, size: 0x8, addend: 0x0, symName: __ZNSt6vectorI8FractionSaIS0_EE6rbeginEv, symObjAddr: 0x35DC, symBinAddr: 0x100003D1C, symSize: 0x38 }
  - { offset: 0x34E65, size: 0x8, addend: 0x0, symName: __ZNSt6vectorI8FractionSaIS0_EED1Ev, symObjAddr: 0x3580, symBinAddr: 0x100003CC0, symSize: 0x5C }
  - { offset: 0x34F0E, size: 0x8, addend: 0x0, symName: __ZNSt6vectorI8FractionSaIS0_EEC1ISt23_Rb_tree_const_iteratorIS0_EvEET_S6_RKS1_, symObjAddr: 0x351C, symBinAddr: 0x100003C5C, symSize: 0x64 }
  - { offset: 0x34FA5, size: 0x8, addend: 0x0, symName: __ZNKSt3setI8FractionSt4lessIS0_ESaIS0_EE3endEv, symObjAddr: 0x3500, symBinAddr: 0x100003C40, symSize: 0x1C }
  - { offset: 0x34FCF, size: 0x8, addend: 0x0, symName: __ZNKSt3setI8FractionSt4lessIS0_ESaIS0_EE5beginEv, symObjAddr: 0x34E4, symBinAddr: 0x100003C24, symSize: 0x1C }
  - { offset: 0x34FF9, size: 0x8, addend: 0x0, symName: __ZNSt6vectorISt4pairIiiESaIS1_EE6assignEmRKS1_, symObjAddr: 0x34B4, symBinAddr: 0x100003BF4, symSize: 0x30 }
  - { offset: 0x35045, size: 0x8, addend: 0x0, symName: __ZNKSt6vectorISt4pairIiiESaIS1_EE5emptyEv, symObjAddr: 0x345C, symBinAddr: 0x100003B9C, symSize: 0x58 }
  - { offset: 0x350DE, size: 0x8, addend: 0x0, symName: __ZNSt6vectorISt4pairIiiESaIS1_EEaSEOS3_, symObjAddr: 0x3420, symBinAddr: 0x100003B60, symSize: 0x3C }
  - { offset: 0x3514E, size: 0x8, addend: 0x0, symName: __ZNSt6vectorIS_ISt4pairIiiESaIS1_EESaIS3_EE6assignEmRKS3_, symObjAddr: 0x33F0, symBinAddr: 0x100003B30, symSize: 0x30 }
  - { offset: 0x3519A, size: 0x8, addend: 0x0, symName: __ZNSt6vectorINSt7__cxx1112basic_stringIcSt11char_traitsIcESaIcEEESaIS5_EE6assignEmRKS5_, symObjAddr: 0x33C0, symBinAddr: 0x100003B00, symSize: 0x30 }
  - { offset: 0x3522A, size: 0x8, addend: 0x0, symName: __ZNSt7__cxx1112basic_stringIcSt11char_traitsIcESaIcEEC1IS3_EEmcRKS3_, symObjAddr: 0x334C, symBinAddr: 0x100003A8C, symSize: 0x74 }
  - { offset: 0x3526B, size: 0x8, addend: 0x0, symName: __ZNSt4pairIiiEaSEOS0_, symObjAddr: 0x3300, symBinAddr: 0x100003A40, symSize: 0x4C }
  - { offset: 0x352EE, size: 0x8, addend: 0x0, symName: __ZNSt6vectorISt4pairIiiESaIS1_EEixEm, symObjAddr: 0x327C, symBinAddr: 0x1000039BC, symSize: 0x84 }
  - { offset: 0x35344, size: 0x8, addend: 0x0, symName: __ZNSt6vectorIS_ISt4pairIiiESaIS1_EESaIS3_EEixEm, symObjAddr: 0x31EC, symBinAddr: 0x10000392C, symSize: 0x90 }
  - { offset: 0x353E0, size: 0x8, addend: 0x0, symName: __ZNSt6vectorIiSaIiEEC1EmRKiRKS0_, symObjAddr: 0x317C, symBinAddr: 0x1000038BC, symSize: 0x70 }
  - { offset: 0x35437, size: 0x8, addend: 0x0, symName: __ZNSt7__cxx1112basic_stringIcSt11char_traitsIcESaIcEEixEm, symObjAddr: 0x30F8, symBinAddr: 0x100003838, symSize: 0x84 }
  - { offset: 0x354D7, size: 0x8, addend: 0x0, symName: __ZNSt4pairIiiEC1IiiLb1EEEOT_OT0_, symObjAddr: 0x30AC, symBinAddr: 0x1000037EC, symSize: 0x4C }
  - { offset: 0x3557F, size: 0x8, addend: 0x0, symName: __ZNSt6vectorISt4pairIiiESaIS1_EE3endEv, symObjAddr: 0x307C, symBinAddr: 0x1000037BC, symSize: 0x30 }
  - { offset: 0x355D3, size: 0x8, addend: 0x0, symName: __ZNSt6vectorISt4pairIiiESaIS1_EE5beginEv, symObjAddr: 0x3050, symBinAddr: 0x100003790, symSize: 0x2C }
  - { offset: 0x35627, size: 0x8, addend: 0x0, symName: __ZNSt6vectorINSt7__cxx1112basic_stringIcSt11char_traitsIcESaIcEEESaIS5_EEixEm, symObjAddr: 0x2FCC, symBinAddr: 0x10000370C, symSize: 0x84 }
  - { offset: 0x3567F, size: 0x8, addend: 0x0, symName: __ZNSt3setI8FractionSt4lessIS0_ESaIS0_EE6insertERKS0_, symObjAddr: 0x2F8C, symBinAddr: 0x1000036CC, symSize: 0x40 }
  - { offset: 0x356E5, size: 0x8, addend: 0x0, symName: __ZNSt8_Rb_treeI8FractionS0_St9_IdentityIS0_ESt4lessIS0_ESaIS0_EED1Ev, symObjAddr: 0x2F58, symBinAddr: 0x100003698, symSize: 0x34 }
  - { offset: 0x3573B, size: 0x8, addend: 0x0, symName: __ZNSt8_Rb_treeI8FractionS0_St9_IdentityIS0_ESt4lessIS0_ESaIS0_EE13_Rb_tree_implIS4_Lb1EEC1Ev, symObjAddr: 0x2F14, symBinAddr: 0x100003654, symSize: 0x44 }
  - { offset: 0x357F0, size: 0x8, addend: 0x0, symName: __ZNSt4pairIiiEC1IRiiLb1EEEOT_OT0_, symObjAddr: 0x2EC8, symBinAddr: 0x100003608, symSize: 0x4C }
  - { offset: 0x35882, size: 0x8, addend: 0x0, symName: __ZNSt6vectorISt4pairIiiESaIS1_EE9push_backEOS1_, symObjAddr: 0x2E94, symBinAddr: 0x1000035D4, symSize: 0x34 }
  - { offset: 0x35929, size: 0x8, addend: 0x0, symName: __ZNSt4pairIiiEC1IRiS2_Lb1EEEOT_OT0_, symObjAddr: 0x2E48, symBinAddr: 0x100003588, symSize: 0x4C }
  - { offset: 0x359BB, size: 0x8, addend: 0x0, symName: __ZNKSt7__cxx1112basic_stringIcSt11char_traitsIcESaIcEEixEm, symObjAddr: 0x2DC4, symBinAddr: 0x100003504, symSize: 0x84 }
  - { offset: 0x35A13, size: 0x8, addend: 0x0, symName: __ZNKSt7__cxx1112basic_stringIcSt11char_traitsIcESaIcEE6lengthEv, symObjAddr: 0x2DA8, symBinAddr: 0x1000034E8, symSize: 0x1C }
  - { offset: 0x35A57, size: 0x8, addend: 0x0, symName: __ZNSt6vectorISt4pairIiiESaIS1_EED1Ev, symObjAddr: 0x2D4C, symBinAddr: 0x10000348C, symSize: 0x5C }
  - { offset: 0x35ACD, size: 0x8, addend: 0x0, symName: __ZNSt12_Vector_baseISt4pairIiiESaIS1_EED2Ev, symObjAddr: 0x2CFC, symBinAddr: 0x10000343C, symSize: 0x50 }
  - { offset: 0x35B23, size: 0x8, addend: 0x0, symName: __ZNSt12_Vector_baseISt4pairIiiESaIS1_EE12_Vector_implC1Ev, symObjAddr: 0x2CC4, symBinAddr: 0x100003404, symSize: 0x38 }
  - { offset: 0x35BA9, size: 0x8, addend: 0x0, symName: __ZNSt12_Vector_baseISt6vectorISt4pairIiiESaIS2_EESaIS4_EED2Ev, symObjAddr: 0x2C68, symBinAddr: 0x1000033A8, symSize: 0x5C }
  - { offset: 0x35BFF, size: 0x8, addend: 0x0, symName: __ZNSt12_Vector_baseISt6vectorISt4pairIiiESaIS2_EESaIS4_EE12_Vector_implC1Ev, symObjAddr: 0x2C30, symBinAddr: 0x100003370, symSize: 0x38 }
  - { offset: 0x35C85, size: 0x8, addend: 0x0, symName: __ZNSt12_Vector_baseINSt7__cxx1112basic_stringIcSt11char_traitsIcESaIcEEESaIS5_EED2Ev, symObjAddr: 0x2BE0, symBinAddr: 0x100003320, symSize: 0x50 }
  - { offset: 0x35CDB, size: 0x8, addend: 0x0, symName: __ZNSt12_Vector_baseINSt7__cxx1112basic_stringIcSt11char_traitsIcESaIcEEESaIS5_EE12_Vector_implC1Ev, symObjAddr: 0x2BA8, symBinAddr: 0x1000032E8, symSize: 0x38 }
  - { offset: 0x35D47, size: 0x8, addend: 0x0, symName: __ZNSt6vectorIiSaIiEE6resizeEmRKi, symObjAddr: 0x2AD8, symBinAddr: 0x100003218, symSize: 0xD0 }
  - { offset: 0x35D93, size: 0x8, addend: 0x0, symName: __ZNSt6vectorIiSaIiEE6resizeEm, symObjAddr: 0x2A28, symBinAddr: 0x100003168, symSize: 0xB0 }
  - { offset: 0x35DCE, size: 0x8, addend: 0x0, symName: __ZNKSt6vectorIiSaIiEE4sizeEv, symObjAddr: 0x29E8, symBinAddr: 0x100003128, symSize: 0x40 }
  - { offset: 0x35E23, size: 0x8, addend: 0x0, symName: __ZNSt6vectorIiSaIiEED1Ev, symObjAddr: 0x298C, symBinAddr: 0x1000030CC, symSize: 0x5C }
  - { offset: 0x35E99, size: 0x8, addend: 0x0, symName: __ZNSt12_Vector_baseIiSaIiEED2Ev, symObjAddr: 0x293C, symBinAddr: 0x10000307C, symSize: 0x50 }
  - { offset: 0x35EEF, size: 0x8, addend: 0x0, symName: __ZNSt12_Vector_baseIiSaIiEE12_Vector_implC1Ev, symObjAddr: 0x2904, symBinAddr: 0x100003044, symSize: 0x38 }
  - { offset: 0x35F57, size: 0x8, addend: 0x0, symName: __ZSt3minIiERKT_S2_S2_, symObjAddr: 0x28CC, symBinAddr: 0x10000300C, symSize: 0x38 }
  - { offset: 0x35F9D, size: 0x8, addend: 0x0, symName: __ZNKSt6vectorIiSaIiEEixEm, symObjAddr: 0x2848, symBinAddr: 0x100002F88, symSize: 0x84 }
  - { offset: 0x35FF3, size: 0x8, addend: 0x0, symName: __ZNSt6vectorIiSaIiEEixEm, symObjAddr: 0x27C4, symBinAddr: 0x100002F04, symSize: 0x84 }
  - { offset: 0x36045, size: 0x8, addend: 0x0, symName: __ZSt3gcdIiiENSt11common_typeIJT_T0_EE4typeES1_S2_, symObjAddr: 0x2788, symBinAddr: 0x100002EC8, symSize: 0x3C }
  - { offset: 0x360C1, size: 0x8, addend: 0x0, symName: __ZNSt8__detail7__abs_rIiiEET_T0_, symObjAddr: 0x2700, symBinAddr: 0x100002E40, symSize: 0x88 }
  - { offset: 0x3615C, size: 0x8, addend: 0x0, symName: __ZNSt7__cxx1112basic_stringIcSt11char_traitsIcESaIcEEC1ERKS4_, symObjAddr: 0x2630, symBinAddr: 0x100002D70, symSize: 0xD0 }
  - { offset: 0x362B9, size: 0x8, addend: 0x0, symName: __ZNSt7__cxx1112basic_stringIcSt11char_traitsIcESaIcEEC1IS3_EEPKcRKS3_, symObjAddr: 0x2594, symBinAddr: 0x100002CD4, symSize: 0x9C }
  - { offset: 0x3631A, size: 0x8, addend: 0x0, symName: __ZSt3maxImERKT_S2_S2_, symObjAddr: 0x255C, symBinAddr: 0x100002C9C, symSize: 0x38 }
  - { offset: 0x363B6, size: 0x8, addend: 0x0, symName: __ZNSt7__cxx1112basic_stringIcSt11char_traitsIcESaIcEEC1EOS4_, symObjAddr: 0x2450, symBinAddr: 0x100002B90, symSize: 0x10C }
  - { offset: 0x36451, size: 0x8, addend: 0x0, symName: __ZNSt7__cxx1112basic_stringIcSt11char_traitsIcESaIcEE22__resize_and_overwriteIZNS_9to_stringEiEUlPcmE_EEvmT_, symObjAddr: 0x23C4, symBinAddr: 0x100002B04, symSize: 0x8C }
  - { offset: 0x3653F, size: 0x8, addend: 0x0, symName: __ZZNSt7__cxx1112basic_stringIcSt11char_traitsIcESaIcEE22__resize_and_overwriteIZNS_9to_stringEiEUlPcmE_EEvmT_EN11_TerminatorD1Ev, symObjAddr: 0x2390, symBinAddr: 0x100002AD0, symSize: 0x34 }
  - { offset: 0x365A6, size: 0x8, addend: 0x0, symName: __ZNSt8__detail18__to_chars_10_implIjEEvPcjT_, symObjAddr: 0x21DC, symBinAddr: 0x10000291C, symSize: 0x1B4 }
  - { offset: 0x3668C, size: 0x8, addend: 0x0, symName: __ZNSt7__cxx1112basic_stringIcSt11char_traitsIcESaIcEED1Ev, symObjAddr: 0x21B4, symBinAddr: 0x1000028F4, symSize: 0x28 }
  - { offset: 0x366CC, size: 0x8, addend: 0x0, symName: __ZNSt7__cxx1112basic_stringIcSt11char_traitsIcESaIcEEC1Ev, symObjAddr: 0x2140, symBinAddr: 0x100002880, symSize: 0x74 }
  - { offset: 0x36798, size: 0x8, addend: 0x0, symName: __ZNSt7__cxx1112basic_stringIcSt11char_traitsIcESaIcEE12_Alloc_hiderD1Ev, symObjAddr: 0x2114, symBinAddr: 0x100002854, symSize: 0x2C }
  - { offset: 0x367DD, size: 0x8, addend: 0x0, symName: __ZN9__gnu_cxx11char_traitsIcE6lengthEPKc, symObjAddr: 0x20BC, symBinAddr: 0x1000027FC, symSize: 0x58 }
  - { offset: 0x3681E, size: 0x8, addend: 0x0, symName: _main, symObjAddr: 0x1FBC, symBinAddr: 0x1000026FC, symSize: 0x100 }
  - { offset: 0x36867, size: 0x8, addend: 0x0, symName: __Z17MaximizeSleepTimeB5cxx11v, symObjAddr: 0x1C1C, symBinAddr: 0x10000235C, symSize: 0x3A0 }
  - { offset: 0x36C1A, size: 0x8, addend: 0x0, symName: __Z10IsFeasible8Fraction, symObjAddr: 0x1858, symBinAddr: 0x100001F98, symSize: 0x3C4 }
  - { offset: 0x36DC2, size: 0x8, addend: 0x0, symName: __ZN11SegmentTreeD1Ev, symObjAddr: 0x1828, symBinAddr: 0x100001F68, symSize: 0x30 }
  - { offset: 0x36DF7, size: 0x8, addend: 0x0, symName: __Z9BacktrackiiiR11SegmentTree, symObjAddr: 0x15C8, symBinAddr: 0x100001D08, symSize: 0x260 }
  - { offset: 0x36F8F, size: 0x8, addend: 0x0, symName: __Z18InitializeCoveragei, symObjAddr: 0x1484, symBinAddr: 0x100001BC4, symSize: 0x144 }
  - { offset: 0x370A4, size: 0x8, addend: 0x0, symName: __Z24PrecomputeSleepIntervalsiii, symObjAddr: 0x12F0, symBinAddr: 0x100001A30, symSize: 0x194 }
  - { offset: 0x37177, size: 0x8, addend: 0x0, symName: __Z26GenerateCandidateFractionsi, symObjAddr: 0x1038, symBinAddr: 0x100001778, symSize: 0x2B8 }
  - { offset: 0x373D7, size: 0x8, addend: 0x0, symName: __ZNSt10__pair_getILm1EE10__move_getIiiEEOT0_OSt4pairIT_S2_E, symObjAddr: 0x1018, symBinAddr: 0x100001758, symSize: 0x20 }
  - { offset: 0x37437, size: 0x8, addend: 0x0, symName: __ZSt3getILm1EiiEONSt13tuple_elementIXT_ESt4pairIT0_T1_EE4typeEOS4_, symObjAddr: 0xFF4, symBinAddr: 0x100001734, symSize: 0x24 }
  - { offset: 0x374C5, size: 0x8, addend: 0x0, symName: __ZNSt10__pair_getILm0EE10__move_getIiiEEOT_OSt4pairIS2_T0_E, symObjAddr: 0xFD8, symBinAddr: 0x100001718, symSize: 0x1C }
  - { offset: 0x37549, size: 0x8, addend: 0x0, symName: __ZSt3getILm0EiiEONSt13tuple_elementIXT_ESt4pairIT0_T1_EE4typeEOS4_, symObjAddr: 0xFB4, symBinAddr: 0x1000016F4, symSize: 0x24 }
  - { offset: 0x37633, size: 0x8, addend: 0x0, symName: __ZNSt3setI8FractionSt4lessIS0_ESaIS0_EED1Ev, symObjAddr: 0xF94, symBinAddr: 0x1000016D4, symSize: 0x20 }
  - { offset: 0x37673, size: 0x8, addend: 0x0, symName: __ZNSt3setI8FractionSt4lessIS0_ESaIS0_EEC1Ev, symObjAddr: 0xF74, symBinAddr: 0x1000016B4, symSize: 0x20 }
  - { offset: 0x376B3, size: 0x8, addend: 0x0, symName: __ZNSt8_Rb_treeI8FractionS0_St9_IdentityIS0_ESt4lessIS0_ESaIS0_EEC1Ev, symObjAddr: 0xF54, symBinAddr: 0x100001694, symSize: 0x20 }
  - { offset: 0x376F7, size: 0x8, addend: 0x0, symName: __ZNSt8_Rb_treeI8FractionS0_St9_IdentityIS0_ESt4lessIS0_ESaIS0_EE13_Rb_tree_implIS4_Lb1EED1Ev, symObjAddr: 0xF28, symBinAddr: 0x100001668, symSize: 0x2C }
  - { offset: 0x37749, size: 0x8, addend: 0x0, symName: __Z21FindAvailableSegmentsRKNSt7__cxx1112basic_stringIcSt11char_traitsIcESaIcEEE, symObjAddr: 0xDE8, symBinAddr: 0x100001528, symSize: 0x140 }
  - { offset: 0x377D7, size: 0x8, addend: 0x0, symName: __ZNSt6vectorISt4pairIiiESaIS1_EEC1Ev, symObjAddr: 0xDC8, symBinAddr: 0x100001508, symSize: 0x20 }
  - { offset: 0x37817, size: 0x8, addend: 0x0, symName: __ZNSt12_Vector_baseISt4pairIiiESaIS1_EEC2Ev, symObjAddr: 0xDA8, symBinAddr: 0x1000014E8, symSize: 0x20 }
  - { offset: 0x3785A, size: 0x8, addend: 0x0, symName: __ZNSt12_Vector_baseISt4pairIiiESaIS1_EE12_Vector_implD1Ev, symObjAddr: 0xD7C, symBinAddr: 0x1000014BC, symSize: 0x2C }
  - { offset: 0x378BD, size: 0x8, addend: 0x0, symName: __ZNSt6vectorIS_ISt4pairIiiESaIS1_EESaIS3_EEC1Ev, symObjAddr: 0xD5C, symBinAddr: 0x10000149C, symSize: 0x20 }
  - { offset: 0x378FD, size: 0x8, addend: 0x0, symName: __ZNSt12_Vector_baseISt6vectorISt4pairIiiESaIS2_EESaIS4_EEC2Ev, symObjAddr: 0xD3C, symBinAddr: 0x10000147C, symSize: 0x20 }
  - { offset: 0x37940, size: 0x8, addend: 0x0, symName: __ZNSt12_Vector_baseISt6vectorISt4pairIiiESaIS2_EESaIS4_EE12_Vector_implD1Ev, symObjAddr: 0xD10, symBinAddr: 0x100001450, symSize: 0x2C }
  - { offset: 0x379A3, size: 0x8, addend: 0x0, symName: __ZNSt6vectorINSt7__cxx1112basic_stringIcSt11char_traitsIcESaIcEEESaIS5_EEC1Ev, symObjAddr: 0xCF0, symBinAddr: 0x100001430, symSize: 0x20 }
  - { offset: 0x379E3, size: 0x8, addend: 0x0, symName: __ZNSt12_Vector_baseINSt7__cxx1112basic_stringIcSt11char_traitsIcESaIcEEESaIS5_EEC2Ev, symObjAddr: 0xCD0, symBinAddr: 0x100001410, symSize: 0x20 }
  - { offset: 0x37A26, size: 0x8, addend: 0x0, symName: __ZNSt12_Vector_baseINSt7__cxx1112basic_stringIcSt11char_traitsIcESaIcEEESaIS5_EE12_Vector_implD1Ev, symObjAddr: 0xCA4, symBinAddr: 0x1000013E4, symSize: 0x2C }
  - { offset: 0x37A6F, size: 0x8, addend: 0x0, symName: __ZN11SegmentTree6getMinEv, symObjAddr: 0xC7C, symBinAddr: 0x1000013BC, symSize: 0x28 }
  - { offset: 0x37A99, size: 0x8, addend: 0x0, symName: __ZN11SegmentTree11updateRangeEiii, symObjAddr: 0xC2C, symBinAddr: 0x10000136C, symSize: 0x50 }
  - { offset: 0x37B1A, size: 0x8, addend: 0x0, symName: __ZN11SegmentTreeC1ERKSt6vectorIiSaIiEE, symObjAddr: 0xB40, symBinAddr: 0x100001280, symSize: 0xEC }
  - { offset: 0x37B63, size: 0x8, addend: 0x0, symName: __ZNSt6vectorIiSaIiEEC1Ev, symObjAddr: 0xB20, symBinAddr: 0x100001260, symSize: 0x20 }
  - { offset: 0x37BA3, size: 0x8, addend: 0x0, symName: __ZNSt12_Vector_baseIiSaIiEEC2Ev, symObjAddr: 0xB00, symBinAddr: 0x100001240, symSize: 0x20 }
  - { offset: 0x37BE6, size: 0x8, addend: 0x0, symName: __ZNSt12_Vector_baseIiSaIiEE12_Vector_implD1Ev, symObjAddr: 0xAD4, symBinAddr: 0x100001214, symSize: 0x2C }
  - { offset: 0x37C2F, size: 0x8, addend: 0x0, symName: __ZN11SegmentTree11updateRangeEiiiiii, symObjAddr: 0x920, symBinAddr: 0x100001060, symSize: 0x1B4 }
  - { offset: 0x37CC9, size: 0x8, addend: 0x0, symName: __ZN11SegmentTree4pushEiii, symObjAddr: 0x72C, symBinAddr: 0x100000E6C, symSize: 0x1F4 }
  - { offset: 0x37D46, size: 0x8, addend: 0x0, symName: __ZN11SegmentTree5buildEiiiRKSt6vectorIiSaIiEE, symObjAddr: 0x5F0, symBinAddr: 0x100000D30, symSize: 0x13C }
  - { offset: 0x37DD3, size: 0x8, addend: 0x0, symName: __ZNK8FractionleEi, symObjAddr: 0x5B0, symBinAddr: 0x100000CF0, symSize: 0x40 }
  - { offset: 0x37E0D, size: 0x8, addend: 0x0, symName: __ZNK8FractionltERKS_, symObjAddr: 0x558, symBinAddr: 0x100000C98, symSize: 0x58 }
  - { offset: 0x37E47, size: 0x8, addend: 0x0, symName: __ZN8Fraction8simplifyEv, symObjAddr: 0x4BC, symBinAddr: 0x100000BFC, symSize: 0x9C }
  - { offset: 0x37EB5, size: 0x8, addend: 0x0, symName: __ZN8FractionC1Eii, symObjAddr: 0x47C, symBinAddr: 0x100000BBC, symSize: 0x40 }
  - { offset: 0x37EF0, size: 0x8, addend: 0x0, symName: __ZSt13__countr_zeroIjEiT_, symObjAddr: 0x458, symBinAddr: 0x100000B98, symSize: 0x24 }
  - { offset: 0x37F34, size: 0x8, addend: 0x0, symName: __ZSt3minImERKT_S2_S2_, symObjAddr: 0x420, symBinAddr: 0x100000B60, symSize: 0x38 }
  - { offset: 0x37F7A, size: 0x8, addend: 0x0, symName: __ZNSt15_Rb_tree_header8_M_resetEv, symObjAddr: 0x3E4, symBinAddr: 0x100000B24, symSize: 0x3C }
  - { offset: 0x37FBE, size: 0x8, addend: 0x0, symName: __ZNSt15_Rb_tree_headerC2Ev, symObjAddr: 0x3BC, symBinAddr: 0x100000AFC, symSize: 0x28 }
  - { offset: 0x37FE4, size: 0x8, addend: 0x0, symName: __ZNKSt18_Rb_tree_node_base11_M_base_ptrEv, symObjAddr: 0x3A8, symBinAddr: 0x100000AE8, symSize: 0x14 }
  - { offset: 0x3800A, size: 0x8, addend: 0x0, symName: __ZNSt8__detail14__to_chars_lenIjEEjT_i, symObjAddr: 0x2D0, symBinAddr: 0x100000A10, symSize: 0xD8 }
  - { offset: 0x3808C, size: 0x8, addend: 0x0, symName: __ZNSt7__cxx119to_stringEi, symObjAddr: 0x220, symBinAddr: 0x100000960, symSize: 0xB0 }
  - { offset: 0x3811F, size: 0x8, addend: 0x0, symName: __ZZNSt7__cxx119to_stringEiENKUlPcmE_clES0_m, symObjAddr: 0x1C4, symBinAddr: 0x100000904, symSize: 0x5C }
  - { offset: 0x381CB, size: 0x8, addend: 0x0, symName: __ZSt17__size_to_integerm, symObjAddr: 0x1B0, symBinAddr: 0x1000008F0, symSize: 0x14 }
  - { offset: 0x381F5, size: 0x8, addend: 0x0, symName: __ZN9__gnu_cxx5__ops15__val_comp_iterENS0_15_Iter_less_iterE, symObjAddr: 0x198, symBinAddr: 0x1000008D8, symSize: 0x18 }
  - { offset: 0x3823A, size: 0x8, addend: 0x0, symName: __ZN9__gnu_cxx5__ops14_Iter_less_valC1ENS0_15_Iter_less_iterE, symObjAddr: 0x180, symBinAddr: 0x1000008C0, symSize: 0x18 }
  - { offset: 0x38265, size: 0x8, addend: 0x0, symName: __ZN9__gnu_cxx5__ops16__iter_less_iterEv, symObjAddr: 0x178, symBinAddr: 0x1000008B8, symSize: 0x8 }
  - { offset: 0x3827D, size: 0x8, addend: 0x0, symName: __ZNSt11char_traitsIcE6assignEPcmc, symObjAddr: 0x12C, symBinAddr: 0x10000086C, symSize: 0x4C }
  - { offset: 0x382C9, size: 0x8, addend: 0x0, symName: __ZNSt11char_traitsIcE4copyEPcPKcm, symObjAddr: 0xD8, symBinAddr: 0x100000818, symSize: 0x54 }
  - { offset: 0x38315, size: 0x8, addend: 0x0, symName: __ZNSt11char_traitsIcE4moveEPcPKcm, symObjAddr: 0x94, symBinAddr: 0x1000007D4, symSize: 0x44 }
  - { offset: 0x38361, size: 0x8, addend: 0x0, symName: __ZNSt11char_traitsIcE6lengthEPKc, symObjAddr: 0x58, symBinAddr: 0x100000798, symSize: 0x3C }
  - { offset: 0x383A5, size: 0x8, addend: 0x0, symName: __ZNSt11char_traitsIcE6assignERcRKc, symObjAddr: 0x30, symBinAddr: 0x100000770, symSize: 0x28 }
  - { offset: 0x383E7, size: 0x8, addend: 0x0, symName: __ZdlPvS_, symObjAddr: 0x18, symBinAddr: 0x100000758, symSize: 0x18 }
  - { offset: 0x3841D, size: 0x8, addend: 0x0, symName: __ZnwmPv, symObjAddr: 0x0, symBinAddr: 0x100000740, symSize: 0x18 }
...
